ARM GAS  C:\Users\Julien\AppData\Local\Temp\ccY6B1AY.s 			page 1


   1              		.syntax unified
   2              		.cpu cortex-m3
   3              		.fpu softvfp
   4              		.eabi_attribute 20, 1
   5              		.eabi_attribute 21, 1
   6              		.eabi_attribute 23, 3
   7              		.eabi_attribute 24, 1
   8              		.eabi_attribute 25, 1
   9              		.eabi_attribute 26, 1
  10              		.eabi_attribute 30, 1
  11              		.eabi_attribute 34, 1
  12              		.eabi_attribute 18, 4
  13              		.thumb
  14              		.file	"main.c"
  15              		.text
  16              	.Ltext0:
  17              		.cfi_sections	.debug_frame
  18              		.section	.text.timerInterrupt,"ax",%progbits
  19              		.align	2
  20              		.global	timerInterrupt
  21              		.thumb
  22              		.thumb_func
  23              		.type	timerInterrupt, %function
  24              	timerInterrupt:
  25              	.LFB63:
  26              		.file 1 "main.c"
   1:main.c        **** /* ========================================
   2:main.c        ****  *
   3:main.c        ****  * Copyright YOUR COMPANY, THE YEAR
   4:main.c        ****  * All Rights Reserved
   5:main.c        ****  * UNPUBLISHED, LICENSED SOFTWARE.
   6:main.c        ****  *
   7:main.c        ****  * CONFIDENTIAL AND PROPRIETARY INFORMATION
   8:main.c        ****  * WHICH IS THE PROPERTY OF your company.
   9:main.c        ****  *
  10:main.c        ****  * ========================================
  11:main.c        **** */
  12:main.c        **** #include "project.h"
  13:main.c        **** 
  14:main.c        **** uint32 timerCount;
  15:main.c        **** 
  16:main.c        **** CY_ISR(timerInterrupt)
  17:main.c        **** {
  27              		.loc 1 17 0
  28              		.cfi_startproc
  29              		@ args = 0, pretend = 0, frame = 0
  30              		@ frame_needed = 0, uses_anonymous_args = 0
  31 0000 08B5     		push	{r3, lr}
  32              		.cfi_def_cfa_offset 8
  33              		.cfi_offset 3, -8
  34              		.cfi_offset 14, -4
  18:main.c        **** 	/* Read counter register
  19:main.c        **** 	 */
  20:main.c        ****    	 timerCount = Timer_US_ReadCapture();
  35              		.loc 1 20 0
  36 0002 FFF7FEFF 		bl	Timer_US_ReadCapture
  37              	.LVL0:
ARM GAS  C:\Users\Julien\AppData\Local\Temp\ccY6B1AY.s 			page 2


  38 0006 024B     		ldr	r3, .L3
  39 0008 1860     		str	r0, [r3]
  21:main.c        ****      US_40kHz_Stop(); // Arrêt de l'émission ultrasons
  40              		.loc 1 21 0
  41 000a FFF7FEFF 		bl	US_40kHz_Stop
  42              	.LVL1:
  43 000e 08BD     		pop	{r3, pc}
  44              	.L4:
  45              		.align	2
  46              	.L3:
  47 0010 00000000 		.word	timerCount
  48              		.cfi_endproc
  49              	.LFE63:
  50              		.size	timerInterrupt, .-timerInterrupt
  51              		.section	.text.main,"ax",%progbits
  52              		.align	2
  53              		.global	main
  54              		.thumb
  55              		.thumb_func
  56              		.type	main, %function
  57              	main:
  58              	.LFB64:
  22:main.c        **** }
  23:main.c        **** 
  24:main.c        **** 
  25:main.c        **** 
  26:main.c        **** int main(void)
  27:main.c        **** {
  59              		.loc 1 27 0
  60              		.cfi_startproc
  61              		@ args = 0, pretend = 0, frame = 0
  62              		@ frame_needed = 0, uses_anonymous_args = 0
  63 0000 10B5     		push	{r4, lr}
  64              		.cfi_def_cfa_offset 8
  65              		.cfi_offset 4, -8
  66              		.cfi_offset 14, -4
  28:main.c        ****     uint32  distance;
  29:main.c        ****     
  30:main.c        ****     /* Start and assign interrupt handle for interrupt component */
  31:main.c        ****     TimerISR_StartEx(timerInterrupt);
  67              		.loc 1 31 0
  68 0002 1448     		ldr	r0, .L8
  69 0004 FFF7FEFF 		bl	TimerISR_StartEx
  70              	.LVL2:
  32:main.c        ****     
  33:main.c        ****     CyGlobalIntEnable; /* Enable global interrupts. */
  71              		.loc 1 33 0
  72              	@ 33 "main.c" 1
  73 0008 62B6     		CPSIE   i
  74              	@ 0 "" 2
  34:main.c        **** 
  35:main.c        ****     /* Place your initialization/startup code here (e.g. MyInst_Start()) */
  36:main.c        ****     Ampli_Recept_Start();
  75              		.loc 1 36 0
  76              		.thumb
  77 000a FFF7FEFF 		bl	Ampli_Recept_Start
  78              	.LVL3:
ARM GAS  C:\Users\Julien\AppData\Local\Temp\ccY6B1AY.s 			page 3


  37:main.c        ****     Detect_Seuil_Recept_Start();
  79              		.loc 1 37 0
  80 000e FFF7FEFF 		bl	Detect_Seuil_Recept_Start
  81              	.LVL4:
  38:main.c        ****     V_seuil_Start();
  82              		.loc 1 38 0
  83 0012 FFF7FEFF 		bl	V_seuil_Start
  84              	.LVL5:
  39:main.c        ****     Timer_US_Start();
  85              		.loc 1 39 0
  86 0016 FFF7FEFF 		bl	Timer_US_Start
  87              	.LVL6:
  40:main.c        ****     
  41:main.c        ****     CharLCD_1_Position(0u, 0u);
  88              		.loc 1 41 0
  89 001a 0020     		movs	r0, #0
  90 001c 0146     		mov	r1, r0
  91 001e FFF7FEFF 		bl	CharLCD_1_Position
  92              	.LVL7:
  42:main.c        ****     CharLCD_1_PrintString("DISTANCE :");
  93              		.loc 1 42 0
  94 0022 0D48     		ldr	r0, .L8+4
  95 0024 FFF7FEFF 		bl	CharLCD_1_PrintString
  96              	.LVL8:
  97              	.L6:
  43:main.c        ****     
  44:main.c        ****     
  45:main.c        ****     for(;;)
  46:main.c        ****     {
  47:main.c        ****         US_40kHz_Start(); // Génération signal pour émetteur ultrasons
  98              		.loc 1 47 0 discriminator 1
  99 0028 FFF7FEFF 		bl	US_40kHz_Start
 100              	.LVL9:
  48:main.c        ****         
  49:main.c        ****         /* Place your application code here. */
  50:main.c        ****         distance = timerCount/24000000 * 340;
 101              		.loc 1 50 0 discriminator 1
 102 002c 0B4B     		ldr	r3, .L8+8
 103 002e 1B68     		ldr	r3, [r3]
 104 0030 0B4A     		ldr	r2, .L8+12
 105 0032 A2FB0323 		umull	r2, r3, r2, r3
 106 0036 5B0D     		lsrs	r3, r3, #21
 107 0038 4FF4AA74 		mov	r4, #340
 108 003c 04FB03F4 		mul	r4, r4, r3
 109              	.LVL10:
  51:main.c        ****         
  52:main.c        **** 		CharLCD_1_Position(0u, 11u);
 110              		.loc 1 52 0 discriminator 1
 111 0040 0020     		movs	r0, #0
 112 0042 0B21     		movs	r1, #11
 113 0044 FFF7FEFF 		bl	CharLCD_1_Position
 114              	.LVL11:
  53:main.c        ****         CharLCD_1_PrintInt8(distance);
 115              		.loc 1 53 0 discriminator 1
 116 0048 04F0FC00 		and	r0, r4, #252
 117 004c FFF7FEFF 		bl	CharLCD_1_PrintInt8
 118              	.LVL12:
ARM GAS  C:\Users\Julien\AppData\Local\Temp\ccY6B1AY.s 			page 4


  54:main.c        ****     }
 119              		.loc 1 54 0 discriminator 1
 120 0050 EAE7     		b	.L6
 121              	.L9:
 122 0052 00BF     		.align	2
 123              	.L8:
 124 0054 00000000 		.word	timerInterrupt
 125 0058 00000000 		.word	.LC0
 126 005c 00000000 		.word	timerCount
 127 0060 819F5E16 		.word	375299969
 128              		.cfi_endproc
 129              	.LFE64:
 130              		.size	main, .-main
 131              		.comm	timerCount,4,4
 132              		.section	.rodata.str1.4,"aMS",%progbits,1
 133              		.align	2
 134              	.LC0:
 135 0000 44495354 		.ascii	"DISTANCE :\000"
 135      414E4345 
 135      203A00
 136 000b 00       		.text
 137              	.Letext0:
 138              		.file 2 "c:\\program files (x86)\\cypress\\psoc creator\\4.0\\psoc creator\\import\\gnu\\arm\\4.9.
 139              		.file 3 "c:\\program files (x86)\\cypress\\psoc creator\\4.0\\psoc creator\\import\\gnu\\arm\\4.9.
 140              		.file 4 "Generated_Source\\PSoC5/cytypes.h"
 141              		.file 5 "Generated_Source\\PSoC5/core_cm3.h"
 142              		.file 6 "Generated_Source\\PSoC5/US_40kHz.h"
 143              		.file 7 "Generated_Source\\PSoC5/Ampli_Recept.h"
 144              		.file 8 "Generated_Source\\PSoC5/Detect_Seuil_Recept.h"
 145              		.file 9 "Generated_Source\\PSoC5/V_seuil.h"
 146              		.file 10 "Generated_Source\\PSoC5/Timer_US.h"
 147              		.file 11 "Generated_Source\\PSoC5/TimerISR.h"
 148              		.file 12 "Generated_Source\\PSoC5/CharLCD_1.h"