ARM GAS  C:\Users\Julien\AppData\Local\Temp\ccANphxe.s 			page 1


   1              		.syntax unified
   2              		.cpu cortex-m3
   3              		.fpu softvfp
   4              		.eabi_attribute 20, 1
   5              		.eabi_attribute 21, 1
   6              		.eabi_attribute 23, 3
   7              		.eabi_attribute 24, 1
   8              		.eabi_attribute 25, 1
   9              		.eabi_attribute 26, 1
  10              		.eabi_attribute 30, 1
  11              		.eabi_attribute 34, 1
  12              		.eabi_attribute 18, 4
  13              		.thumb
  14              		.file	"Timer_US.c"
  15              		.text
  16              	.Ltext0:
  17              		.cfi_sections	.debug_frame
  18              		.section	.text.Timer_US_Enable,"ax",%progbits
  19              		.align	2
  20              		.global	Timer_US_Enable
  21              		.thumb
  22              		.thumb_func
  23              		.type	Timer_US_Enable, %function
  24              	Timer_US_Enable:
  25              	.LFB1:
  26              		.file 1 "Generated_Source\\PSoC5\\Timer_US.c"
   1:Generated_Source\PSoC5/Timer_US.c **** /*******************************************************************************
   2:Generated_Source\PSoC5/Timer_US.c **** * File Name: Timer_US.c
   3:Generated_Source\PSoC5/Timer_US.c **** * Version 2.70
   4:Generated_Source\PSoC5/Timer_US.c **** *
   5:Generated_Source\PSoC5/Timer_US.c **** * Description:
   6:Generated_Source\PSoC5/Timer_US.c **** *  The Timer component consists of a 8, 16, 24 or 32-bit timer with
   7:Generated_Source\PSoC5/Timer_US.c **** *  a selectable period between 2 and 2^Width - 1.  The timer may free run
   8:Generated_Source\PSoC5/Timer_US.c **** *  or be used as a capture timer as well.  The capture can be initiated
   9:Generated_Source\PSoC5/Timer_US.c **** *  by a positive or negative edge signal as well as via software.
  10:Generated_Source\PSoC5/Timer_US.c **** *  A trigger input can be programmed to enable the timer on rising edge
  11:Generated_Source\PSoC5/Timer_US.c **** *  falling edge, either edge or continous run.
  12:Generated_Source\PSoC5/Timer_US.c **** *  Interrupts may be generated due to a terminal count condition
  13:Generated_Source\PSoC5/Timer_US.c **** *  or a capture event.
  14:Generated_Source\PSoC5/Timer_US.c **** *
  15:Generated_Source\PSoC5/Timer_US.c **** * Note:
  16:Generated_Source\PSoC5/Timer_US.c **** *
  17:Generated_Source\PSoC5/Timer_US.c **** ********************************************************************************
  18:Generated_Source\PSoC5/Timer_US.c **** * Copyright 2008-2014, Cypress Semiconductor Corporation.  All rights reserved.
  19:Generated_Source\PSoC5/Timer_US.c **** * You may use this file only in accordance with the license, terms, conditions,
  20:Generated_Source\PSoC5/Timer_US.c **** * disclaimers, and limitations in the end user license agreement accompanying
  21:Generated_Source\PSoC5/Timer_US.c **** * the software package with which this file was provided.
  22:Generated_Source\PSoC5/Timer_US.c **** ********************************************************************************/
  23:Generated_Source\PSoC5/Timer_US.c **** 
  24:Generated_Source\PSoC5/Timer_US.c **** #include "Timer_US.h"
  25:Generated_Source\PSoC5/Timer_US.c **** 
  26:Generated_Source\PSoC5/Timer_US.c **** uint8 Timer_US_initVar = 0u;
  27:Generated_Source\PSoC5/Timer_US.c **** 
  28:Generated_Source\PSoC5/Timer_US.c **** 
  29:Generated_Source\PSoC5/Timer_US.c **** /*******************************************************************************
  30:Generated_Source\PSoC5/Timer_US.c **** * Function Name: Timer_US_Init
  31:Generated_Source\PSoC5/Timer_US.c **** ********************************************************************************
ARM GAS  C:\Users\Julien\AppData\Local\Temp\ccANphxe.s 			page 2


  32:Generated_Source\PSoC5/Timer_US.c **** *
  33:Generated_Source\PSoC5/Timer_US.c **** * Summary:
  34:Generated_Source\PSoC5/Timer_US.c **** *  Initialize to the schematic state
  35:Generated_Source\PSoC5/Timer_US.c **** *
  36:Generated_Source\PSoC5/Timer_US.c **** * Parameters:
  37:Generated_Source\PSoC5/Timer_US.c **** *  void
  38:Generated_Source\PSoC5/Timer_US.c **** *
  39:Generated_Source\PSoC5/Timer_US.c **** * Return:
  40:Generated_Source\PSoC5/Timer_US.c **** *  void
  41:Generated_Source\PSoC5/Timer_US.c **** *
  42:Generated_Source\PSoC5/Timer_US.c **** *******************************************************************************/
  43:Generated_Source\PSoC5/Timer_US.c **** void Timer_US_Init(void) 
  44:Generated_Source\PSoC5/Timer_US.c **** {
  45:Generated_Source\PSoC5/Timer_US.c ****     #if(!Timer_US_UsingFixedFunction)
  46:Generated_Source\PSoC5/Timer_US.c ****             /* Interrupt State Backup for Critical Region*/
  47:Generated_Source\PSoC5/Timer_US.c ****             uint8 Timer_US_interruptState;
  48:Generated_Source\PSoC5/Timer_US.c ****     #endif /* Interrupt state back up for Fixed Function only */
  49:Generated_Source\PSoC5/Timer_US.c **** 
  50:Generated_Source\PSoC5/Timer_US.c ****     #if (Timer_US_UsingFixedFunction)
  51:Generated_Source\PSoC5/Timer_US.c ****         /* Clear all bits but the enable bit (if it's already set) for Timer operation */
  52:Generated_Source\PSoC5/Timer_US.c ****         Timer_US_CONTROL &= Timer_US_CTRL_ENABLE;
  53:Generated_Source\PSoC5/Timer_US.c **** 
  54:Generated_Source\PSoC5/Timer_US.c ****         /* Clear the mode bits for continuous run mode */
  55:Generated_Source\PSoC5/Timer_US.c ****         #if (CY_PSOC5A)
  56:Generated_Source\PSoC5/Timer_US.c ****             Timer_US_CONTROL2 &= ((uint8)(~Timer_US_CTRL_MODE_MASK));
  57:Generated_Source\PSoC5/Timer_US.c ****         #endif /* Clear bits in CONTROL2 only in PSOC5A */
  58:Generated_Source\PSoC5/Timer_US.c **** 
  59:Generated_Source\PSoC5/Timer_US.c ****         #if (CY_PSOC3 || CY_PSOC5LP)
  60:Generated_Source\PSoC5/Timer_US.c ****             Timer_US_CONTROL3 &= ((uint8)(~Timer_US_CTRL_MODE_MASK));
  61:Generated_Source\PSoC5/Timer_US.c ****         #endif /* CONTROL3 register exists only in PSoC3 OR PSoC5LP */
  62:Generated_Source\PSoC5/Timer_US.c **** 
  63:Generated_Source\PSoC5/Timer_US.c ****         /* Check if One Shot mode is enabled i.e. RunMode !=0*/
  64:Generated_Source\PSoC5/Timer_US.c ****         #if (Timer_US_RunModeUsed != 0x0u)
  65:Generated_Source\PSoC5/Timer_US.c ****             /* Set 3rd bit of Control register to enable one shot mode */
  66:Generated_Source\PSoC5/Timer_US.c ****             Timer_US_CONTROL |= 0x04u;
  67:Generated_Source\PSoC5/Timer_US.c ****         #endif /* One Shot enabled only when RunModeUsed is not Continuous*/
  68:Generated_Source\PSoC5/Timer_US.c **** 
  69:Generated_Source\PSoC5/Timer_US.c ****         #if (Timer_US_RunModeUsed == 2)
  70:Generated_Source\PSoC5/Timer_US.c ****             #if (CY_PSOC5A)
  71:Generated_Source\PSoC5/Timer_US.c ****                 /* Set last 2 bits of control2 register if one shot(halt on
  72:Generated_Source\PSoC5/Timer_US.c ****                 interrupt) is enabled*/
  73:Generated_Source\PSoC5/Timer_US.c ****                 Timer_US_CONTROL2 |= 0x03u;
  74:Generated_Source\PSoC5/Timer_US.c ****             #endif /* Set One-Shot Halt on Interrupt bit in CONTROL2 for PSoC5A */
  75:Generated_Source\PSoC5/Timer_US.c **** 
  76:Generated_Source\PSoC5/Timer_US.c ****             #if (CY_PSOC3 || CY_PSOC5LP)
  77:Generated_Source\PSoC5/Timer_US.c ****                 /* Set last 2 bits of control3 register if one shot(halt on
  78:Generated_Source\PSoC5/Timer_US.c ****                 interrupt) is enabled*/
  79:Generated_Source\PSoC5/Timer_US.c ****                 Timer_US_CONTROL3 |= 0x03u;
  80:Generated_Source\PSoC5/Timer_US.c ****             #endif /* Set One-Shot Halt on Interrupt bit in CONTROL3 for PSoC3 or PSoC5LP */
  81:Generated_Source\PSoC5/Timer_US.c **** 
  82:Generated_Source\PSoC5/Timer_US.c ****         #endif /* Remove section if One Shot Halt on Interrupt is not enabled */
  83:Generated_Source\PSoC5/Timer_US.c **** 
  84:Generated_Source\PSoC5/Timer_US.c ****         #if (Timer_US_UsingHWEnable != 0)
  85:Generated_Source\PSoC5/Timer_US.c ****             #if (CY_PSOC5A)
  86:Generated_Source\PSoC5/Timer_US.c ****                 /* Set the default Run Mode of the Timer to Continuous */
  87:Generated_Source\PSoC5/Timer_US.c ****                 Timer_US_CONTROL2 |= Timer_US_CTRL_MODE_PULSEWIDTH;
  88:Generated_Source\PSoC5/Timer_US.c ****             #endif /* Set Continuous Run Mode in CONTROL2 for PSoC5A */
ARM GAS  C:\Users\Julien\AppData\Local\Temp\ccANphxe.s 			page 3


  89:Generated_Source\PSoC5/Timer_US.c **** 
  90:Generated_Source\PSoC5/Timer_US.c ****             #if (CY_PSOC3 || CY_PSOC5LP)
  91:Generated_Source\PSoC5/Timer_US.c ****                 /* Clear and Set ROD and COD bits of CFG2 register */
  92:Generated_Source\PSoC5/Timer_US.c ****                 Timer_US_CONTROL3 &= ((uint8)(~Timer_US_CTRL_RCOD_MASK));
  93:Generated_Source\PSoC5/Timer_US.c ****                 Timer_US_CONTROL3 |= Timer_US_CTRL_RCOD;
  94:Generated_Source\PSoC5/Timer_US.c **** 
  95:Generated_Source\PSoC5/Timer_US.c ****                 /* Clear and Enable the HW enable bit in CFG2 register */
  96:Generated_Source\PSoC5/Timer_US.c ****                 Timer_US_CONTROL3 &= ((uint8)(~Timer_US_CTRL_ENBL_MASK));
  97:Generated_Source\PSoC5/Timer_US.c ****                 Timer_US_CONTROL3 |= Timer_US_CTRL_ENBL;
  98:Generated_Source\PSoC5/Timer_US.c **** 
  99:Generated_Source\PSoC5/Timer_US.c ****                 /* Set the default Run Mode of the Timer to Continuous */
 100:Generated_Source\PSoC5/Timer_US.c ****                 Timer_US_CONTROL3 |= Timer_US_CTRL_MODE_CONTINUOUS;
 101:Generated_Source\PSoC5/Timer_US.c ****             #endif /* Set Continuous Run Mode in CONTROL3 for PSoC3ES3 or PSoC5A */
 102:Generated_Source\PSoC5/Timer_US.c **** 
 103:Generated_Source\PSoC5/Timer_US.c ****         #endif /* Configure Run Mode with hardware enable */
 104:Generated_Source\PSoC5/Timer_US.c **** 
 105:Generated_Source\PSoC5/Timer_US.c ****         /* Clear and Set SYNCTC and SYNCCMP bits of RT1 register */
 106:Generated_Source\PSoC5/Timer_US.c ****         Timer_US_RT1 &= ((uint8)(~Timer_US_RT1_MASK));
 107:Generated_Source\PSoC5/Timer_US.c ****         Timer_US_RT1 |= Timer_US_SYNC;
 108:Generated_Source\PSoC5/Timer_US.c **** 
 109:Generated_Source\PSoC5/Timer_US.c ****         /*Enable DSI Sync all all inputs of the Timer*/
 110:Generated_Source\PSoC5/Timer_US.c ****         Timer_US_RT1 &= ((uint8)(~Timer_US_SYNCDSI_MASK));
 111:Generated_Source\PSoC5/Timer_US.c ****         Timer_US_RT1 |= Timer_US_SYNCDSI_EN;
 112:Generated_Source\PSoC5/Timer_US.c **** 
 113:Generated_Source\PSoC5/Timer_US.c ****         /* Set the IRQ to use the status register interrupts */
 114:Generated_Source\PSoC5/Timer_US.c ****         Timer_US_CONTROL2 |= Timer_US_CTRL2_IRQ_SEL;
 115:Generated_Source\PSoC5/Timer_US.c ****     #endif /* Configuring registers of fixed function implementation */
 116:Generated_Source\PSoC5/Timer_US.c **** 
 117:Generated_Source\PSoC5/Timer_US.c ****     /* Set Initial values from Configuration */
 118:Generated_Source\PSoC5/Timer_US.c ****     Timer_US_WritePeriod(Timer_US_INIT_PERIOD);
 119:Generated_Source\PSoC5/Timer_US.c ****     Timer_US_WriteCounter(Timer_US_INIT_PERIOD);
 120:Generated_Source\PSoC5/Timer_US.c **** 
 121:Generated_Source\PSoC5/Timer_US.c ****     #if (Timer_US_UsingHWCaptureCounter)/* Capture counter is enabled */
 122:Generated_Source\PSoC5/Timer_US.c ****         Timer_US_CAPTURE_COUNT_CTRL |= Timer_US_CNTR_ENABLE;
 123:Generated_Source\PSoC5/Timer_US.c ****         Timer_US_SetCaptureCount(Timer_US_INIT_CAPTURE_COUNT);
 124:Generated_Source\PSoC5/Timer_US.c ****     #endif /* Configure capture counter value */
 125:Generated_Source\PSoC5/Timer_US.c **** 
 126:Generated_Source\PSoC5/Timer_US.c ****     #if (!Timer_US_UsingFixedFunction)
 127:Generated_Source\PSoC5/Timer_US.c ****         #if (Timer_US_SoftwareCaptureMode)
 128:Generated_Source\PSoC5/Timer_US.c ****             Timer_US_SetCaptureMode(Timer_US_INIT_CAPTURE_MODE);
 129:Generated_Source\PSoC5/Timer_US.c ****         #endif /* Set Capture Mode for UDB implementation if capture mode is software controlled */
 130:Generated_Source\PSoC5/Timer_US.c **** 
 131:Generated_Source\PSoC5/Timer_US.c ****         #if (Timer_US_SoftwareTriggerMode)
 132:Generated_Source\PSoC5/Timer_US.c ****             #if (!Timer_US_UDB_CONTROL_REG_REMOVED)
 133:Generated_Source\PSoC5/Timer_US.c ****                 if (0u == (Timer_US_CONTROL & Timer_US__B_TIMER__TM_SOFTWARE))
 134:Generated_Source\PSoC5/Timer_US.c ****                 {
 135:Generated_Source\PSoC5/Timer_US.c ****                     Timer_US_SetTriggerMode(Timer_US_INIT_TRIGGER_MODE);
 136:Generated_Source\PSoC5/Timer_US.c ****                 }
 137:Generated_Source\PSoC5/Timer_US.c ****             #endif /* (!Timer_US_UDB_CONTROL_REG_REMOVED) */
 138:Generated_Source\PSoC5/Timer_US.c ****         #endif /* Set trigger mode for UDB Implementation if trigger mode is software controlled */
 139:Generated_Source\PSoC5/Timer_US.c **** 
 140:Generated_Source\PSoC5/Timer_US.c ****         /* CyEnterCriticalRegion and CyExitCriticalRegion are used to mark following region critica
 141:Generated_Source\PSoC5/Timer_US.c ****         /* Enter Critical Region*/
 142:Generated_Source\PSoC5/Timer_US.c ****         Timer_US_interruptState = CyEnterCriticalSection();
 143:Generated_Source\PSoC5/Timer_US.c **** 
 144:Generated_Source\PSoC5/Timer_US.c ****         /* Use the interrupt output of the status register for IRQ output */
 145:Generated_Source\PSoC5/Timer_US.c ****         Timer_US_STATUS_AUX_CTRL |= Timer_US_STATUS_ACTL_INT_EN_MASK;
ARM GAS  C:\Users\Julien\AppData\Local\Temp\ccANphxe.s 			page 4


 146:Generated_Source\PSoC5/Timer_US.c **** 
 147:Generated_Source\PSoC5/Timer_US.c ****         /* Exit Critical Region*/
 148:Generated_Source\PSoC5/Timer_US.c ****         CyExitCriticalSection(Timer_US_interruptState);
 149:Generated_Source\PSoC5/Timer_US.c **** 
 150:Generated_Source\PSoC5/Timer_US.c ****         #if (Timer_US_EnableTriggerMode)
 151:Generated_Source\PSoC5/Timer_US.c ****             Timer_US_EnableTrigger();
 152:Generated_Source\PSoC5/Timer_US.c ****         #endif /* Set Trigger enable bit for UDB implementation in the control register*/
 153:Generated_Source\PSoC5/Timer_US.c **** 		
 154:Generated_Source\PSoC5/Timer_US.c **** 		
 155:Generated_Source\PSoC5/Timer_US.c ****         #if (Timer_US_InterruptOnCaptureCount && !Timer_US_UDB_CONTROL_REG_REMOVED)
 156:Generated_Source\PSoC5/Timer_US.c ****             Timer_US_SetInterruptCount(Timer_US_INIT_INT_CAPTURE_COUNT);
 157:Generated_Source\PSoC5/Timer_US.c ****         #endif /* Set interrupt count in UDB implementation if interrupt count feature is checked.*
 158:Generated_Source\PSoC5/Timer_US.c **** 
 159:Generated_Source\PSoC5/Timer_US.c ****         Timer_US_ClearFIFO();
 160:Generated_Source\PSoC5/Timer_US.c ****     #endif /* Configure additional features of UDB implementation */
 161:Generated_Source\PSoC5/Timer_US.c **** 
 162:Generated_Source\PSoC5/Timer_US.c ****     Timer_US_SetInterruptMode(Timer_US_INIT_INTERRUPT_MODE);
 163:Generated_Source\PSoC5/Timer_US.c **** }
 164:Generated_Source\PSoC5/Timer_US.c **** 
 165:Generated_Source\PSoC5/Timer_US.c **** 
 166:Generated_Source\PSoC5/Timer_US.c **** /*******************************************************************************
 167:Generated_Source\PSoC5/Timer_US.c **** * Function Name: Timer_US_Enable
 168:Generated_Source\PSoC5/Timer_US.c **** ********************************************************************************
 169:Generated_Source\PSoC5/Timer_US.c **** *
 170:Generated_Source\PSoC5/Timer_US.c **** * Summary:
 171:Generated_Source\PSoC5/Timer_US.c **** *  Enable the Timer
 172:Generated_Source\PSoC5/Timer_US.c **** *
 173:Generated_Source\PSoC5/Timer_US.c **** * Parameters:
 174:Generated_Source\PSoC5/Timer_US.c **** *  void
 175:Generated_Source\PSoC5/Timer_US.c **** *
 176:Generated_Source\PSoC5/Timer_US.c **** * Return:
 177:Generated_Source\PSoC5/Timer_US.c **** *  void
 178:Generated_Source\PSoC5/Timer_US.c **** *
 179:Generated_Source\PSoC5/Timer_US.c **** *******************************************************************************/
 180:Generated_Source\PSoC5/Timer_US.c **** void Timer_US_Enable(void) 
 181:Generated_Source\PSoC5/Timer_US.c **** {
  27              		.loc 1 181 0
  28              		.cfi_startproc
  29              		@ args = 0, pretend = 0, frame = 0
  30              		@ frame_needed = 0, uses_anonymous_args = 0
  31              		@ link register save eliminated.
  32 0000 7047     		bx	lr
  33              		.cfi_endproc
  34              	.LFE1:
  35              		.size	Timer_US_Enable, .-Timer_US_Enable
  36 0002 00BF     		.section	.text.Timer_US_Stop,"ax",%progbits
  37              		.align	2
  38              		.global	Timer_US_Stop
  39              		.thumb
  40              		.thumb_func
  41              		.type	Timer_US_Stop, %function
  42              	Timer_US_Stop:
  43              	.LFB3:
 182:Generated_Source\PSoC5/Timer_US.c ****     /* Globally Enable the Fixed Function Block chosen */
 183:Generated_Source\PSoC5/Timer_US.c ****     #if (Timer_US_UsingFixedFunction)
 184:Generated_Source\PSoC5/Timer_US.c ****         Timer_US_GLOBAL_ENABLE |= Timer_US_BLOCK_EN_MASK;
 185:Generated_Source\PSoC5/Timer_US.c ****         Timer_US_GLOBAL_STBY_ENABLE |= Timer_US_BLOCK_STBY_EN_MASK;
ARM GAS  C:\Users\Julien\AppData\Local\Temp\ccANphxe.s 			page 5


 186:Generated_Source\PSoC5/Timer_US.c ****     #endif /* Set Enable bit for enabling Fixed function timer*/
 187:Generated_Source\PSoC5/Timer_US.c **** 
 188:Generated_Source\PSoC5/Timer_US.c ****     /* Remove assignment if control register is removed */
 189:Generated_Source\PSoC5/Timer_US.c ****     #if (!Timer_US_UDB_CONTROL_REG_REMOVED || Timer_US_UsingFixedFunction)
 190:Generated_Source\PSoC5/Timer_US.c ****         Timer_US_CONTROL |= Timer_US_CTRL_ENABLE;
 191:Generated_Source\PSoC5/Timer_US.c ****     #endif /* Remove assignment if control register is removed */
 192:Generated_Source\PSoC5/Timer_US.c **** }
 193:Generated_Source\PSoC5/Timer_US.c **** 
 194:Generated_Source\PSoC5/Timer_US.c **** 
 195:Generated_Source\PSoC5/Timer_US.c **** /*******************************************************************************
 196:Generated_Source\PSoC5/Timer_US.c **** * Function Name: Timer_US_Start
 197:Generated_Source\PSoC5/Timer_US.c **** ********************************************************************************
 198:Generated_Source\PSoC5/Timer_US.c **** *
 199:Generated_Source\PSoC5/Timer_US.c **** * Summary:
 200:Generated_Source\PSoC5/Timer_US.c **** *  The start function initializes the timer with the default values, the
 201:Generated_Source\PSoC5/Timer_US.c **** *  enables the timerto begin counting.  It does not enable interrupts,
 202:Generated_Source\PSoC5/Timer_US.c **** *  the EnableInt command should be called if interrupt generation is required.
 203:Generated_Source\PSoC5/Timer_US.c **** *
 204:Generated_Source\PSoC5/Timer_US.c **** * Parameters:
 205:Generated_Source\PSoC5/Timer_US.c **** *  void
 206:Generated_Source\PSoC5/Timer_US.c **** *
 207:Generated_Source\PSoC5/Timer_US.c **** * Return:
 208:Generated_Source\PSoC5/Timer_US.c **** *  void
 209:Generated_Source\PSoC5/Timer_US.c **** *
 210:Generated_Source\PSoC5/Timer_US.c **** * Global variables:
 211:Generated_Source\PSoC5/Timer_US.c **** *  Timer_US_initVar: Is modified when this function is called for the
 212:Generated_Source\PSoC5/Timer_US.c **** *   first time. Is used to ensure that initialization happens only once.
 213:Generated_Source\PSoC5/Timer_US.c **** *
 214:Generated_Source\PSoC5/Timer_US.c **** *******************************************************************************/
 215:Generated_Source\PSoC5/Timer_US.c **** void Timer_US_Start(void) 
 216:Generated_Source\PSoC5/Timer_US.c **** {
 217:Generated_Source\PSoC5/Timer_US.c ****     if(Timer_US_initVar == 0u)
 218:Generated_Source\PSoC5/Timer_US.c ****     {
 219:Generated_Source\PSoC5/Timer_US.c ****         Timer_US_Init();
 220:Generated_Source\PSoC5/Timer_US.c **** 
 221:Generated_Source\PSoC5/Timer_US.c ****         Timer_US_initVar = 1u;   /* Clear this bit for Initialization */
 222:Generated_Source\PSoC5/Timer_US.c ****     }
 223:Generated_Source\PSoC5/Timer_US.c **** 
 224:Generated_Source\PSoC5/Timer_US.c ****     /* Enable the Timer */
 225:Generated_Source\PSoC5/Timer_US.c ****     Timer_US_Enable();
 226:Generated_Source\PSoC5/Timer_US.c **** }
 227:Generated_Source\PSoC5/Timer_US.c **** 
 228:Generated_Source\PSoC5/Timer_US.c **** 
 229:Generated_Source\PSoC5/Timer_US.c **** /*******************************************************************************
 230:Generated_Source\PSoC5/Timer_US.c **** * Function Name: Timer_US_Stop
 231:Generated_Source\PSoC5/Timer_US.c **** ********************************************************************************
 232:Generated_Source\PSoC5/Timer_US.c **** *
 233:Generated_Source\PSoC5/Timer_US.c **** * Summary:
 234:Generated_Source\PSoC5/Timer_US.c **** *  The stop function halts the timer, but does not change any modes or disable
 235:Generated_Source\PSoC5/Timer_US.c **** *  interrupts.
 236:Generated_Source\PSoC5/Timer_US.c **** *
 237:Generated_Source\PSoC5/Timer_US.c **** * Parameters:
 238:Generated_Source\PSoC5/Timer_US.c **** *  void
 239:Generated_Source\PSoC5/Timer_US.c **** *
 240:Generated_Source\PSoC5/Timer_US.c **** * Return:
 241:Generated_Source\PSoC5/Timer_US.c **** *  void
 242:Generated_Source\PSoC5/Timer_US.c **** *
ARM GAS  C:\Users\Julien\AppData\Local\Temp\ccANphxe.s 			page 6


 243:Generated_Source\PSoC5/Timer_US.c **** * Side Effects: If the Enable mode is set to Hardware only then this function
 244:Generated_Source\PSoC5/Timer_US.c **** *               has no effect on the operation of the timer.
 245:Generated_Source\PSoC5/Timer_US.c **** *
 246:Generated_Source\PSoC5/Timer_US.c **** *******************************************************************************/
 247:Generated_Source\PSoC5/Timer_US.c **** void Timer_US_Stop(void) 
 248:Generated_Source\PSoC5/Timer_US.c **** {
  44              		.loc 1 248 0
  45              		.cfi_startproc
  46              		@ args = 0, pretend = 0, frame = 0
  47              		@ frame_needed = 0, uses_anonymous_args = 0
  48              		@ link register save eliminated.
  49 0000 7047     		bx	lr
  50              		.cfi_endproc
  51              	.LFE3:
  52              		.size	Timer_US_Stop, .-Timer_US_Stop
  53 0002 00BF     		.section	.text.Timer_US_SetInterruptMode,"ax",%progbits
  54              		.align	2
  55              		.global	Timer_US_SetInterruptMode
  56              		.thumb
  57              		.thumb_func
  58              		.type	Timer_US_SetInterruptMode, %function
  59              	Timer_US_SetInterruptMode:
  60              	.LFB4:
 249:Generated_Source\PSoC5/Timer_US.c ****     /* Disable Timer */
 250:Generated_Source\PSoC5/Timer_US.c ****     #if(!Timer_US_UDB_CONTROL_REG_REMOVED || Timer_US_UsingFixedFunction)
 251:Generated_Source\PSoC5/Timer_US.c ****         Timer_US_CONTROL &= ((uint8)(~Timer_US_CTRL_ENABLE));
 252:Generated_Source\PSoC5/Timer_US.c ****     #endif /* Remove assignment if control register is removed */
 253:Generated_Source\PSoC5/Timer_US.c **** 
 254:Generated_Source\PSoC5/Timer_US.c ****     /* Globally disable the Fixed Function Block chosen */
 255:Generated_Source\PSoC5/Timer_US.c ****     #if (Timer_US_UsingFixedFunction)
 256:Generated_Source\PSoC5/Timer_US.c ****         Timer_US_GLOBAL_ENABLE &= ((uint8)(~Timer_US_BLOCK_EN_MASK));
 257:Generated_Source\PSoC5/Timer_US.c ****         Timer_US_GLOBAL_STBY_ENABLE &= ((uint8)(~Timer_US_BLOCK_STBY_EN_MASK));
 258:Generated_Source\PSoC5/Timer_US.c ****     #endif /* Disable global enable for the Timer Fixed function block to stop the Timer*/
 259:Generated_Source\PSoC5/Timer_US.c **** }
 260:Generated_Source\PSoC5/Timer_US.c **** 
 261:Generated_Source\PSoC5/Timer_US.c **** 
 262:Generated_Source\PSoC5/Timer_US.c **** /*******************************************************************************
 263:Generated_Source\PSoC5/Timer_US.c **** * Function Name: Timer_US_SetInterruptMode
 264:Generated_Source\PSoC5/Timer_US.c **** ********************************************************************************
 265:Generated_Source\PSoC5/Timer_US.c **** *
 266:Generated_Source\PSoC5/Timer_US.c **** * Summary:
 267:Generated_Source\PSoC5/Timer_US.c **** *  This function selects which of the interrupt inputs may cause an interrupt.
 268:Generated_Source\PSoC5/Timer_US.c **** *  The twosources are caputure and terminal.  One, both or neither may
 269:Generated_Source\PSoC5/Timer_US.c **** *  be selected.
 270:Generated_Source\PSoC5/Timer_US.c **** *
 271:Generated_Source\PSoC5/Timer_US.c **** * Parameters:
 272:Generated_Source\PSoC5/Timer_US.c **** *  interruptMode:   This parameter is used to enable interrups on either/or
 273:Generated_Source\PSoC5/Timer_US.c **** *                   terminal count or capture.
 274:Generated_Source\PSoC5/Timer_US.c **** *
 275:Generated_Source\PSoC5/Timer_US.c **** * Return:
 276:Generated_Source\PSoC5/Timer_US.c **** *  void
 277:Generated_Source\PSoC5/Timer_US.c **** *
 278:Generated_Source\PSoC5/Timer_US.c **** *******************************************************************************/
 279:Generated_Source\PSoC5/Timer_US.c **** void Timer_US_SetInterruptMode(uint8 interruptMode) 
 280:Generated_Source\PSoC5/Timer_US.c **** {
  61              		.loc 1 280 0
  62              		.cfi_startproc
ARM GAS  C:\Users\Julien\AppData\Local\Temp\ccANphxe.s 			page 7


  63              		@ args = 0, pretend = 0, frame = 0
  64              		@ frame_needed = 0, uses_anonymous_args = 0
  65              		@ link register save eliminated.
  66              	.LVL0:
 281:Generated_Source\PSoC5/Timer_US.c ****     Timer_US_STATUS_MASK = interruptMode;
  67              		.loc 1 281 0
  68 0000 014B     		ldr	r3, .L4
  69 0002 1870     		strb	r0, [r3]
  70 0004 7047     		bx	lr
  71              	.L5:
  72 0006 00BF     		.align	2
  73              	.L4:
  74 0008 8A640040 		.word	1073767562
  75              		.cfi_endproc
  76              	.LFE4:
  77              		.size	Timer_US_SetInterruptMode, .-Timer_US_SetInterruptMode
  78              		.section	.text.Timer_US_SoftwareCapture,"ax",%progbits
  79              		.align	2
  80              		.global	Timer_US_SoftwareCapture
  81              		.thumb
  82              		.thumb_func
  83              		.type	Timer_US_SoftwareCapture, %function
  84              	Timer_US_SoftwareCapture:
  85              	.LFB5:
 282:Generated_Source\PSoC5/Timer_US.c **** }
 283:Generated_Source\PSoC5/Timer_US.c **** 
 284:Generated_Source\PSoC5/Timer_US.c **** 
 285:Generated_Source\PSoC5/Timer_US.c **** /*******************************************************************************
 286:Generated_Source\PSoC5/Timer_US.c **** * Function Name: Timer_US_SoftwareCapture
 287:Generated_Source\PSoC5/Timer_US.c **** ********************************************************************************
 288:Generated_Source\PSoC5/Timer_US.c **** *
 289:Generated_Source\PSoC5/Timer_US.c **** * Summary:
 290:Generated_Source\PSoC5/Timer_US.c **** *  This function forces a capture independent of the capture signal.
 291:Generated_Source\PSoC5/Timer_US.c **** *
 292:Generated_Source\PSoC5/Timer_US.c **** * Parameters:
 293:Generated_Source\PSoC5/Timer_US.c **** *  void
 294:Generated_Source\PSoC5/Timer_US.c **** *
 295:Generated_Source\PSoC5/Timer_US.c **** * Return:
 296:Generated_Source\PSoC5/Timer_US.c **** *  void
 297:Generated_Source\PSoC5/Timer_US.c **** *
 298:Generated_Source\PSoC5/Timer_US.c **** * Side Effects:
 299:Generated_Source\PSoC5/Timer_US.c **** *  An existing hardware capture could be overwritten.
 300:Generated_Source\PSoC5/Timer_US.c **** *
 301:Generated_Source\PSoC5/Timer_US.c **** *******************************************************************************/
 302:Generated_Source\PSoC5/Timer_US.c **** void Timer_US_SoftwareCapture(void) 
 303:Generated_Source\PSoC5/Timer_US.c **** {
  86              		.loc 1 303 0
  87              		.cfi_startproc
  88              		@ args = 0, pretend = 0, frame = 0
  89              		@ frame_needed = 0, uses_anonymous_args = 0
  90              		@ link register save eliminated.
 304:Generated_Source\PSoC5/Timer_US.c ****     /* Generate a software capture by reading the counter register */
 305:Generated_Source\PSoC5/Timer_US.c ****     #if(Timer_US_UsingFixedFunction)
 306:Generated_Source\PSoC5/Timer_US.c ****         (void)CY_GET_REG16(Timer_US_COUNTER_LSB_PTR);
 307:Generated_Source\PSoC5/Timer_US.c ****     #else
 308:Generated_Source\PSoC5/Timer_US.c ****         (void)CY_GET_REG8(Timer_US_COUNTER_LSB_PTR_8BIT);
  91              		.loc 1 308 0
ARM GAS  C:\Users\Julien\AppData\Local\Temp\ccANphxe.s 			page 8


  92 0000 014B     		ldr	r3, .L7
  93 0002 1B78     		ldrb	r3, [r3]	@ zero_extendqisi2
  94 0004 7047     		bx	lr
  95              	.L8:
  96 0006 00BF     		.align	2
  97              	.L7:
  98 0008 08640040 		.word	1073767432
  99              		.cfi_endproc
 100              	.LFE5:
 101              		.size	Timer_US_SoftwareCapture, .-Timer_US_SoftwareCapture
 102              		.section	.text.Timer_US_ReadStatusRegister,"ax",%progbits
 103              		.align	2
 104              		.global	Timer_US_ReadStatusRegister
 105              		.thumb
 106              		.thumb_func
 107              		.type	Timer_US_ReadStatusRegister, %function
 108              	Timer_US_ReadStatusRegister:
 109              	.LFB6:
 309:Generated_Source\PSoC5/Timer_US.c ****     #endif/* (Timer_US_UsingFixedFunction) */
 310:Generated_Source\PSoC5/Timer_US.c ****     /* Capture Data is now in the FIFO */
 311:Generated_Source\PSoC5/Timer_US.c **** }
 312:Generated_Source\PSoC5/Timer_US.c **** 
 313:Generated_Source\PSoC5/Timer_US.c **** 
 314:Generated_Source\PSoC5/Timer_US.c **** /*******************************************************************************
 315:Generated_Source\PSoC5/Timer_US.c **** * Function Name: Timer_US_ReadStatusRegister
 316:Generated_Source\PSoC5/Timer_US.c **** ********************************************************************************
 317:Generated_Source\PSoC5/Timer_US.c **** *
 318:Generated_Source\PSoC5/Timer_US.c **** * Summary:
 319:Generated_Source\PSoC5/Timer_US.c **** *  Reads the status register and returns it's state. This function should use
 320:Generated_Source\PSoC5/Timer_US.c **** *  defined types for the bit-field information as the bits in this register may
 321:Generated_Source\PSoC5/Timer_US.c **** *  be permuteable.
 322:Generated_Source\PSoC5/Timer_US.c **** *
 323:Generated_Source\PSoC5/Timer_US.c **** * Parameters:
 324:Generated_Source\PSoC5/Timer_US.c **** *  void
 325:Generated_Source\PSoC5/Timer_US.c **** *
 326:Generated_Source\PSoC5/Timer_US.c **** * Return:
 327:Generated_Source\PSoC5/Timer_US.c **** *  The contents of the status register
 328:Generated_Source\PSoC5/Timer_US.c **** *
 329:Generated_Source\PSoC5/Timer_US.c **** * Side Effects:
 330:Generated_Source\PSoC5/Timer_US.c **** *  Status register bits may be clear on read.
 331:Generated_Source\PSoC5/Timer_US.c **** *
 332:Generated_Source\PSoC5/Timer_US.c **** *******************************************************************************/
 333:Generated_Source\PSoC5/Timer_US.c **** uint8   Timer_US_ReadStatusRegister(void) 
 334:Generated_Source\PSoC5/Timer_US.c **** {
 110              		.loc 1 334 0
 111              		.cfi_startproc
 112              		@ args = 0, pretend = 0, frame = 0
 113              		@ frame_needed = 0, uses_anonymous_args = 0
 114              		@ link register save eliminated.
 335:Generated_Source\PSoC5/Timer_US.c ****     return (Timer_US_STATUS);
 115              		.loc 1 335 0
 116 0000 014B     		ldr	r3, .L10
 117 0002 1878     		ldrb	r0, [r3]	@ zero_extendqisi2
 336:Generated_Source\PSoC5/Timer_US.c **** }
 118              		.loc 1 336 0
 119 0004 7047     		bx	lr
 120              	.L11:
ARM GAS  C:\Users\Julien\AppData\Local\Temp\ccANphxe.s 			page 9


 121 0006 00BF     		.align	2
 122              	.L10:
 123 0008 6A640040 		.word	1073767530
 124              		.cfi_endproc
 125              	.LFE6:
 126              		.size	Timer_US_ReadStatusRegister, .-Timer_US_ReadStatusRegister
 127              		.section	.text.Timer_US_ReadPeriod,"ax",%progbits
 128              		.align	2
 129              		.global	Timer_US_ReadPeriod
 130              		.thumb
 131              		.thumb_func
 132              		.type	Timer_US_ReadPeriod, %function
 133              	Timer_US_ReadPeriod:
 134              	.LFB7:
 337:Generated_Source\PSoC5/Timer_US.c **** 
 338:Generated_Source\PSoC5/Timer_US.c **** 
 339:Generated_Source\PSoC5/Timer_US.c **** #if (!Timer_US_UDB_CONTROL_REG_REMOVED) /* Remove API if control register is unused */
 340:Generated_Source\PSoC5/Timer_US.c **** 
 341:Generated_Source\PSoC5/Timer_US.c **** 
 342:Generated_Source\PSoC5/Timer_US.c **** /*******************************************************************************
 343:Generated_Source\PSoC5/Timer_US.c **** * Function Name: Timer_US_ReadControlRegister
 344:Generated_Source\PSoC5/Timer_US.c **** ********************************************************************************
 345:Generated_Source\PSoC5/Timer_US.c **** *
 346:Generated_Source\PSoC5/Timer_US.c **** * Summary:
 347:Generated_Source\PSoC5/Timer_US.c **** *  Reads the control register and returns it's value.
 348:Generated_Source\PSoC5/Timer_US.c **** *
 349:Generated_Source\PSoC5/Timer_US.c **** * Parameters:
 350:Generated_Source\PSoC5/Timer_US.c **** *  void
 351:Generated_Source\PSoC5/Timer_US.c **** *
 352:Generated_Source\PSoC5/Timer_US.c **** * Return:
 353:Generated_Source\PSoC5/Timer_US.c **** *  The contents of the control register
 354:Generated_Source\PSoC5/Timer_US.c **** *
 355:Generated_Source\PSoC5/Timer_US.c **** *******************************************************************************/
 356:Generated_Source\PSoC5/Timer_US.c **** uint8 Timer_US_ReadControlRegister(void) 
 357:Generated_Source\PSoC5/Timer_US.c **** {
 358:Generated_Source\PSoC5/Timer_US.c ****     #if (!Timer_US_UDB_CONTROL_REG_REMOVED) 
 359:Generated_Source\PSoC5/Timer_US.c ****         return ((uint8)Timer_US_CONTROL);
 360:Generated_Source\PSoC5/Timer_US.c ****     #else
 361:Generated_Source\PSoC5/Timer_US.c ****         return (0);
 362:Generated_Source\PSoC5/Timer_US.c ****     #endif /* (!Timer_US_UDB_CONTROL_REG_REMOVED) */
 363:Generated_Source\PSoC5/Timer_US.c **** }
 364:Generated_Source\PSoC5/Timer_US.c **** 
 365:Generated_Source\PSoC5/Timer_US.c **** 
 366:Generated_Source\PSoC5/Timer_US.c **** /*******************************************************************************
 367:Generated_Source\PSoC5/Timer_US.c **** * Function Name: Timer_US_WriteControlRegister
 368:Generated_Source\PSoC5/Timer_US.c **** ********************************************************************************
 369:Generated_Source\PSoC5/Timer_US.c **** *
 370:Generated_Source\PSoC5/Timer_US.c **** * Summary:
 371:Generated_Source\PSoC5/Timer_US.c **** *  Sets the bit-field of the control register.
 372:Generated_Source\PSoC5/Timer_US.c **** *
 373:Generated_Source\PSoC5/Timer_US.c **** * Parameters:
 374:Generated_Source\PSoC5/Timer_US.c **** *  control: The contents of the control register
 375:Generated_Source\PSoC5/Timer_US.c **** *
 376:Generated_Source\PSoC5/Timer_US.c **** * Return:
 377:Generated_Source\PSoC5/Timer_US.c **** *
 378:Generated_Source\PSoC5/Timer_US.c **** *******************************************************************************/
 379:Generated_Source\PSoC5/Timer_US.c **** void Timer_US_WriteControlRegister(uint8 control) 
ARM GAS  C:\Users\Julien\AppData\Local\Temp\ccANphxe.s 			page 10


 380:Generated_Source\PSoC5/Timer_US.c **** {
 381:Generated_Source\PSoC5/Timer_US.c ****     #if (!Timer_US_UDB_CONTROL_REG_REMOVED) 
 382:Generated_Source\PSoC5/Timer_US.c ****         Timer_US_CONTROL = control;
 383:Generated_Source\PSoC5/Timer_US.c ****     #else
 384:Generated_Source\PSoC5/Timer_US.c ****         control = 0u;
 385:Generated_Source\PSoC5/Timer_US.c ****     #endif /* (!Timer_US_UDB_CONTROL_REG_REMOVED) */
 386:Generated_Source\PSoC5/Timer_US.c **** }
 387:Generated_Source\PSoC5/Timer_US.c **** 
 388:Generated_Source\PSoC5/Timer_US.c **** #endif /* Remove API if control register is unused */
 389:Generated_Source\PSoC5/Timer_US.c **** 
 390:Generated_Source\PSoC5/Timer_US.c **** 
 391:Generated_Source\PSoC5/Timer_US.c **** /*******************************************************************************
 392:Generated_Source\PSoC5/Timer_US.c **** * Function Name: Timer_US_ReadPeriod
 393:Generated_Source\PSoC5/Timer_US.c **** ********************************************************************************
 394:Generated_Source\PSoC5/Timer_US.c **** *
 395:Generated_Source\PSoC5/Timer_US.c **** * Summary:
 396:Generated_Source\PSoC5/Timer_US.c **** *  This function returns the current value of the Period.
 397:Generated_Source\PSoC5/Timer_US.c **** *
 398:Generated_Source\PSoC5/Timer_US.c **** * Parameters:
 399:Generated_Source\PSoC5/Timer_US.c **** *  void
 400:Generated_Source\PSoC5/Timer_US.c **** *
 401:Generated_Source\PSoC5/Timer_US.c **** * Return:
 402:Generated_Source\PSoC5/Timer_US.c **** *  The present value of the counter.
 403:Generated_Source\PSoC5/Timer_US.c **** *
 404:Generated_Source\PSoC5/Timer_US.c **** *******************************************************************************/
 405:Generated_Source\PSoC5/Timer_US.c **** uint32 Timer_US_ReadPeriod(void) 
 406:Generated_Source\PSoC5/Timer_US.c **** {
 135              		.loc 1 406 0
 136              		.cfi_startproc
 137              		@ args = 0, pretend = 0, frame = 0
 138              		@ frame_needed = 0, uses_anonymous_args = 0
 139              		@ link register save eliminated.
 407:Generated_Source\PSoC5/Timer_US.c ****    #if(Timer_US_UsingFixedFunction)
 408:Generated_Source\PSoC5/Timer_US.c ****        return ((uint32)CY_GET_REG16(Timer_US_PERIOD_LSB_PTR));
 409:Generated_Source\PSoC5/Timer_US.c ****    #else
 410:Generated_Source\PSoC5/Timer_US.c ****        return (CY_GET_REG24(Timer_US_PERIOD_LSB_PTR));
 140              		.loc 1 410 0
 141 0000 024B     		ldr	r3, .L13
 142 0002 1868     		ldr	r0, [r3]
 411:Generated_Source\PSoC5/Timer_US.c ****    #endif /* (Timer_US_UsingFixedFunction) */
 412:Generated_Source\PSoC5/Timer_US.c **** }
 143              		.loc 1 412 0
 144 0004 20F07F40 		bic	r0, r0, #-16777216
 145 0008 7047     		bx	lr
 146              	.L14:
 147 000a 00BF     		.align	2
 148              	.L13:
 149 000c 28640040 		.word	1073767464
 150              		.cfi_endproc
 151              	.LFE7:
 152              		.size	Timer_US_ReadPeriod, .-Timer_US_ReadPeriod
 153              		.section	.text.Timer_US_WritePeriod,"ax",%progbits
 154              		.align	2
 155              		.global	Timer_US_WritePeriod
 156              		.thumb
 157              		.thumb_func
 158              		.type	Timer_US_WritePeriod, %function
ARM GAS  C:\Users\Julien\AppData\Local\Temp\ccANphxe.s 			page 11


 159              	Timer_US_WritePeriod:
 160              	.LFB8:
 413:Generated_Source\PSoC5/Timer_US.c **** 
 414:Generated_Source\PSoC5/Timer_US.c **** 
 415:Generated_Source\PSoC5/Timer_US.c **** /*******************************************************************************
 416:Generated_Source\PSoC5/Timer_US.c **** * Function Name: Timer_US_WritePeriod
 417:Generated_Source\PSoC5/Timer_US.c **** ********************************************************************************
 418:Generated_Source\PSoC5/Timer_US.c **** *
 419:Generated_Source\PSoC5/Timer_US.c **** * Summary:
 420:Generated_Source\PSoC5/Timer_US.c **** *  This function is used to change the period of the counter.  The new period
 421:Generated_Source\PSoC5/Timer_US.c **** *  will be loaded the next time terminal count is detected.
 422:Generated_Source\PSoC5/Timer_US.c **** *
 423:Generated_Source\PSoC5/Timer_US.c **** * Parameters:
 424:Generated_Source\PSoC5/Timer_US.c **** *  period: This value may be between 1 and (2^Resolution)-1.  A value of 0 will
 425:Generated_Source\PSoC5/Timer_US.c **** *          result in the counter remaining at zero.
 426:Generated_Source\PSoC5/Timer_US.c **** *
 427:Generated_Source\PSoC5/Timer_US.c **** * Return:
 428:Generated_Source\PSoC5/Timer_US.c **** *  void
 429:Generated_Source\PSoC5/Timer_US.c **** *
 430:Generated_Source\PSoC5/Timer_US.c **** *******************************************************************************/
 431:Generated_Source\PSoC5/Timer_US.c **** void Timer_US_WritePeriod(uint32 period) 
 432:Generated_Source\PSoC5/Timer_US.c **** {
 161              		.loc 1 432 0
 162              		.cfi_startproc
 163              		@ args = 0, pretend = 0, frame = 0
 164              		@ frame_needed = 0, uses_anonymous_args = 0
 165              	.LVL1:
 166 0000 08B5     		push	{r3, lr}
 167              		.cfi_def_cfa_offset 8
 168              		.cfi_offset 3, -8
 169              		.cfi_offset 14, -4
 170 0002 0146     		mov	r1, r0
 433:Generated_Source\PSoC5/Timer_US.c ****     #if(Timer_US_UsingFixedFunction)
 434:Generated_Source\PSoC5/Timer_US.c ****         uint16 period_temp = (uint16)period;
 435:Generated_Source\PSoC5/Timer_US.c ****         CY_SET_REG16(Timer_US_PERIOD_LSB_PTR, period_temp);
 436:Generated_Source\PSoC5/Timer_US.c ****     #else
 437:Generated_Source\PSoC5/Timer_US.c ****         CY_SET_REG24(Timer_US_PERIOD_LSB_PTR, period);
 171              		.loc 1 437 0
 172 0004 0148     		ldr	r0, .L17
 173              	.LVL2:
 174 0006 FFF7FEFF 		bl	CySetReg24
 175              	.LVL3:
 176 000a 08BD     		pop	{r3, pc}
 177              	.L18:
 178              		.align	2
 179              	.L17:
 180 000c 28640040 		.word	1073767464
 181              		.cfi_endproc
 182              	.LFE8:
 183              		.size	Timer_US_WritePeriod, .-Timer_US_WritePeriod
 184              		.section	.text.Timer_US_ReadCapture,"ax",%progbits
 185              		.align	2
 186              		.global	Timer_US_ReadCapture
 187              		.thumb
 188              		.thumb_func
 189              		.type	Timer_US_ReadCapture, %function
 190              	Timer_US_ReadCapture:
ARM GAS  C:\Users\Julien\AppData\Local\Temp\ccANphxe.s 			page 12


 191              	.LFB9:
 438:Generated_Source\PSoC5/Timer_US.c ****     #endif /*Write Period value with appropriate resolution suffix depending on UDB or fixed functi
 439:Generated_Source\PSoC5/Timer_US.c **** }
 440:Generated_Source\PSoC5/Timer_US.c **** 
 441:Generated_Source\PSoC5/Timer_US.c **** 
 442:Generated_Source\PSoC5/Timer_US.c **** /*******************************************************************************
 443:Generated_Source\PSoC5/Timer_US.c **** * Function Name: Timer_US_ReadCapture
 444:Generated_Source\PSoC5/Timer_US.c **** ********************************************************************************
 445:Generated_Source\PSoC5/Timer_US.c **** *
 446:Generated_Source\PSoC5/Timer_US.c **** * Summary:
 447:Generated_Source\PSoC5/Timer_US.c **** *  This function returns the last value captured.
 448:Generated_Source\PSoC5/Timer_US.c **** *
 449:Generated_Source\PSoC5/Timer_US.c **** * Parameters:
 450:Generated_Source\PSoC5/Timer_US.c **** *  void
 451:Generated_Source\PSoC5/Timer_US.c **** *
 452:Generated_Source\PSoC5/Timer_US.c **** * Return:
 453:Generated_Source\PSoC5/Timer_US.c **** *  Present Capture value.
 454:Generated_Source\PSoC5/Timer_US.c **** *
 455:Generated_Source\PSoC5/Timer_US.c **** *******************************************************************************/
 456:Generated_Source\PSoC5/Timer_US.c **** uint32 Timer_US_ReadCapture(void) 
 457:Generated_Source\PSoC5/Timer_US.c **** {
 192              		.loc 1 457 0
 193              		.cfi_startproc
 194              		@ args = 0, pretend = 0, frame = 0
 195              		@ frame_needed = 0, uses_anonymous_args = 0
 196              		@ link register save eliminated.
 458:Generated_Source\PSoC5/Timer_US.c ****    #if(Timer_US_UsingFixedFunction)
 459:Generated_Source\PSoC5/Timer_US.c ****        return ((uint32)CY_GET_REG16(Timer_US_CAPTURE_LSB_PTR));
 460:Generated_Source\PSoC5/Timer_US.c ****    #else
 461:Generated_Source\PSoC5/Timer_US.c ****        return (CY_GET_REG24(Timer_US_CAPTURE_LSB_PTR));
 197              		.loc 1 461 0
 198 0000 024B     		ldr	r3, .L20
 199 0002 1868     		ldr	r0, [r3]
 462:Generated_Source\PSoC5/Timer_US.c ****    #endif /* (Timer_US_UsingFixedFunction) */
 463:Generated_Source\PSoC5/Timer_US.c **** }
 200              		.loc 1 463 0
 201 0004 20F07F40 		bic	r0, r0, #-16777216
 202 0008 7047     		bx	lr
 203              	.L21:
 204 000a 00BF     		.align	2
 205              	.L20:
 206 000c 48640040 		.word	1073767496
 207              		.cfi_endproc
 208              	.LFE9:
 209              		.size	Timer_US_ReadCapture, .-Timer_US_ReadCapture
 210              		.section	.text.Timer_US_WriteCounter,"ax",%progbits
 211              		.align	2
 212              		.global	Timer_US_WriteCounter
 213              		.thumb
 214              		.thumb_func
 215              		.type	Timer_US_WriteCounter, %function
 216              	Timer_US_WriteCounter:
 217              	.LFB10:
 464:Generated_Source\PSoC5/Timer_US.c **** 
 465:Generated_Source\PSoC5/Timer_US.c **** 
 466:Generated_Source\PSoC5/Timer_US.c **** /*******************************************************************************
 467:Generated_Source\PSoC5/Timer_US.c **** * Function Name: Timer_US_WriteCounter
ARM GAS  C:\Users\Julien\AppData\Local\Temp\ccANphxe.s 			page 13


 468:Generated_Source\PSoC5/Timer_US.c **** ********************************************************************************
 469:Generated_Source\PSoC5/Timer_US.c **** *
 470:Generated_Source\PSoC5/Timer_US.c **** * Summary:
 471:Generated_Source\PSoC5/Timer_US.c **** *  This funtion is used to set the counter to a specific value
 472:Generated_Source\PSoC5/Timer_US.c **** *
 473:Generated_Source\PSoC5/Timer_US.c **** * Parameters:
 474:Generated_Source\PSoC5/Timer_US.c **** *  counter:  New counter value.
 475:Generated_Source\PSoC5/Timer_US.c **** *
 476:Generated_Source\PSoC5/Timer_US.c **** * Return:
 477:Generated_Source\PSoC5/Timer_US.c **** *  void
 478:Generated_Source\PSoC5/Timer_US.c **** *
 479:Generated_Source\PSoC5/Timer_US.c **** *******************************************************************************/
 480:Generated_Source\PSoC5/Timer_US.c **** void Timer_US_WriteCounter(uint32 counter) 
 481:Generated_Source\PSoC5/Timer_US.c **** {
 218              		.loc 1 481 0
 219              		.cfi_startproc
 220              		@ args = 0, pretend = 0, frame = 0
 221              		@ frame_needed = 0, uses_anonymous_args = 0
 222              	.LVL4:
 223 0000 08B5     		push	{r3, lr}
 224              		.cfi_def_cfa_offset 8
 225              		.cfi_offset 3, -8
 226              		.cfi_offset 14, -4
 227 0002 0146     		mov	r1, r0
 482:Generated_Source\PSoC5/Timer_US.c ****    #if(Timer_US_UsingFixedFunction)
 483:Generated_Source\PSoC5/Timer_US.c ****         /* This functionality is removed until a FixedFunction HW update to
 484:Generated_Source\PSoC5/Timer_US.c ****          * allow this register to be written
 485:Generated_Source\PSoC5/Timer_US.c ****          */
 486:Generated_Source\PSoC5/Timer_US.c ****         CY_SET_REG16(Timer_US_COUNTER_LSB_PTR, (uint16)counter);
 487:Generated_Source\PSoC5/Timer_US.c ****         
 488:Generated_Source\PSoC5/Timer_US.c ****     #else
 489:Generated_Source\PSoC5/Timer_US.c ****         CY_SET_REG24(Timer_US_COUNTER_LSB_PTR, counter);
 228              		.loc 1 489 0
 229 0004 0148     		ldr	r0, .L24
 230              	.LVL5:
 231 0006 FFF7FEFF 		bl	CySetReg24
 232              	.LVL6:
 233 000a 08BD     		pop	{r3, pc}
 234              	.L25:
 235              		.align	2
 236              	.L24:
 237 000c 08640040 		.word	1073767432
 238              		.cfi_endproc
 239              	.LFE10:
 240              		.size	Timer_US_WriteCounter, .-Timer_US_WriteCounter
 241              		.section	.text.Timer_US_ReadCounter,"ax",%progbits
 242              		.align	2
 243              		.global	Timer_US_ReadCounter
 244              		.thumb
 245              		.thumb_func
 246              		.type	Timer_US_ReadCounter, %function
 247              	Timer_US_ReadCounter:
 248              	.LFB11:
 490:Generated_Source\PSoC5/Timer_US.c ****     #endif /* Set Write Counter only for the UDB implementation (Write Counter not available in fix
 491:Generated_Source\PSoC5/Timer_US.c **** }
 492:Generated_Source\PSoC5/Timer_US.c **** 
 493:Generated_Source\PSoC5/Timer_US.c **** 
ARM GAS  C:\Users\Julien\AppData\Local\Temp\ccANphxe.s 			page 14


 494:Generated_Source\PSoC5/Timer_US.c **** /*******************************************************************************
 495:Generated_Source\PSoC5/Timer_US.c **** * Function Name: Timer_US_ReadCounter
 496:Generated_Source\PSoC5/Timer_US.c **** ********************************************************************************
 497:Generated_Source\PSoC5/Timer_US.c **** *
 498:Generated_Source\PSoC5/Timer_US.c **** * Summary:
 499:Generated_Source\PSoC5/Timer_US.c **** *  This function returns the current counter value.
 500:Generated_Source\PSoC5/Timer_US.c **** *
 501:Generated_Source\PSoC5/Timer_US.c **** * Parameters:
 502:Generated_Source\PSoC5/Timer_US.c **** *  void
 503:Generated_Source\PSoC5/Timer_US.c **** *
 504:Generated_Source\PSoC5/Timer_US.c **** * Return:
 505:Generated_Source\PSoC5/Timer_US.c **** *  Present compare value.
 506:Generated_Source\PSoC5/Timer_US.c **** *
 507:Generated_Source\PSoC5/Timer_US.c **** *******************************************************************************/
 508:Generated_Source\PSoC5/Timer_US.c **** uint32 Timer_US_ReadCounter(void) 
 509:Generated_Source\PSoC5/Timer_US.c **** {
 249              		.loc 1 509 0
 250              		.cfi_startproc
 251              		@ args = 0, pretend = 0, frame = 0
 252              		@ frame_needed = 0, uses_anonymous_args = 0
 253              		@ link register save eliminated.
 510:Generated_Source\PSoC5/Timer_US.c ****     /* Force capture by reading Accumulator */
 511:Generated_Source\PSoC5/Timer_US.c ****     /* Must first do a software capture to be able to read the counter */
 512:Generated_Source\PSoC5/Timer_US.c ****     /* It is up to the user code to make sure there isn't already captured data in the FIFO */
 513:Generated_Source\PSoC5/Timer_US.c ****     #if(Timer_US_UsingFixedFunction)
 514:Generated_Source\PSoC5/Timer_US.c ****         (void)CY_GET_REG16(Timer_US_COUNTER_LSB_PTR);
 515:Generated_Source\PSoC5/Timer_US.c ****     #else
 516:Generated_Source\PSoC5/Timer_US.c ****         (void)CY_GET_REG8(Timer_US_COUNTER_LSB_PTR_8BIT);
 254              		.loc 1 516 0
 255 0000 034B     		ldr	r3, .L27
 256 0002 1B78     		ldrb	r3, [r3]	@ zero_extendqisi2
 517:Generated_Source\PSoC5/Timer_US.c ****     #endif/* (Timer_US_UsingFixedFunction) */
 518:Generated_Source\PSoC5/Timer_US.c **** 
 519:Generated_Source\PSoC5/Timer_US.c ****     /* Read the data from the FIFO (or capture register for Fixed Function)*/
 520:Generated_Source\PSoC5/Timer_US.c ****     #if(Timer_US_UsingFixedFunction)
 521:Generated_Source\PSoC5/Timer_US.c ****         return ((uint32)CY_GET_REG16(Timer_US_CAPTURE_LSB_PTR));
 522:Generated_Source\PSoC5/Timer_US.c ****     #else
 523:Generated_Source\PSoC5/Timer_US.c ****         return (CY_GET_REG24(Timer_US_CAPTURE_LSB_PTR));
 257              		.loc 1 523 0
 258 0004 034B     		ldr	r3, .L27+4
 259 0006 1868     		ldr	r0, [r3]
 524:Generated_Source\PSoC5/Timer_US.c ****     #endif /* (Timer_US_UsingFixedFunction) */
 525:Generated_Source\PSoC5/Timer_US.c **** }
 260              		.loc 1 525 0
 261 0008 20F07F40 		bic	r0, r0, #-16777216
 262 000c 7047     		bx	lr
 263              	.L28:
 264 000e 00BF     		.align	2
 265              	.L27:
 266 0010 08640040 		.word	1073767432
 267 0014 48640040 		.word	1073767496
 268              		.cfi_endproc
 269              	.LFE11:
 270              		.size	Timer_US_ReadCounter, .-Timer_US_ReadCounter
 271              		.section	.text.Timer_US_SetInterruptCount,"ax",%progbits
 272              		.align	2
 273              		.global	Timer_US_SetInterruptCount
ARM GAS  C:\Users\Julien\AppData\Local\Temp\ccANphxe.s 			page 15


 274              		.thumb
 275              		.thumb_func
 276              		.type	Timer_US_SetInterruptCount, %function
 277              	Timer_US_SetInterruptCount:
 278              	.LFB12:
 526:Generated_Source\PSoC5/Timer_US.c **** 
 527:Generated_Source\PSoC5/Timer_US.c **** 
 528:Generated_Source\PSoC5/Timer_US.c **** #if(!Timer_US_UsingFixedFunction) /* UDB Specific Functions */
 529:Generated_Source\PSoC5/Timer_US.c **** 
 530:Generated_Source\PSoC5/Timer_US.c ****     
 531:Generated_Source\PSoC5/Timer_US.c **** /*******************************************************************************
 532:Generated_Source\PSoC5/Timer_US.c ****  * The functions below this point are only available using the UDB
 533:Generated_Source\PSoC5/Timer_US.c ****  * implementation.  If a feature is selected, then the API is enabled.
 534:Generated_Source\PSoC5/Timer_US.c ****  ******************************************************************************/
 535:Generated_Source\PSoC5/Timer_US.c **** 
 536:Generated_Source\PSoC5/Timer_US.c **** 
 537:Generated_Source\PSoC5/Timer_US.c **** #if (Timer_US_SoftwareCaptureMode)
 538:Generated_Source\PSoC5/Timer_US.c **** 
 539:Generated_Source\PSoC5/Timer_US.c **** 
 540:Generated_Source\PSoC5/Timer_US.c **** /*******************************************************************************
 541:Generated_Source\PSoC5/Timer_US.c **** * Function Name: Timer_US_SetCaptureMode
 542:Generated_Source\PSoC5/Timer_US.c **** ********************************************************************************
 543:Generated_Source\PSoC5/Timer_US.c **** *
 544:Generated_Source\PSoC5/Timer_US.c **** * Summary:
 545:Generated_Source\PSoC5/Timer_US.c **** *  This function sets the capture mode to either rising or falling edge.
 546:Generated_Source\PSoC5/Timer_US.c **** *
 547:Generated_Source\PSoC5/Timer_US.c **** * Parameters:
 548:Generated_Source\PSoC5/Timer_US.c **** *  captureMode: This parameter sets the capture mode of the UDB capture feature
 549:Generated_Source\PSoC5/Timer_US.c **** *  The parameter values are defined using the
 550:Generated_Source\PSoC5/Timer_US.c **** *  #define Timer_US__B_TIMER__CM_NONE 0
 551:Generated_Source\PSoC5/Timer_US.c **** #define Timer_US__B_TIMER__CM_RISINGEDGE 1
 552:Generated_Source\PSoC5/Timer_US.c **** #define Timer_US__B_TIMER__CM_FALLINGEDGE 2
 553:Generated_Source\PSoC5/Timer_US.c **** #define Timer_US__B_TIMER__CM_EITHEREDGE 3
 554:Generated_Source\PSoC5/Timer_US.c **** #define Timer_US__B_TIMER__CM_SOFTWARE 4
 555:Generated_Source\PSoC5/Timer_US.c ****  identifiers
 556:Generated_Source\PSoC5/Timer_US.c **** *  The following are the possible values of the parameter
 557:Generated_Source\PSoC5/Timer_US.c **** *  Timer_US__B_TIMER__CM_NONE        - Set Capture mode to None
 558:Generated_Source\PSoC5/Timer_US.c **** *  Timer_US__B_TIMER__CM_RISINGEDGE  - Rising edge of Capture input
 559:Generated_Source\PSoC5/Timer_US.c **** *  Timer_US__B_TIMER__CM_FALLINGEDGE - Falling edge of Capture input
 560:Generated_Source\PSoC5/Timer_US.c **** *  Timer_US__B_TIMER__CM_EITHEREDGE  - Either edge of Capture input
 561:Generated_Source\PSoC5/Timer_US.c **** *
 562:Generated_Source\PSoC5/Timer_US.c **** * Return:
 563:Generated_Source\PSoC5/Timer_US.c **** *  void
 564:Generated_Source\PSoC5/Timer_US.c **** *
 565:Generated_Source\PSoC5/Timer_US.c **** *******************************************************************************/
 566:Generated_Source\PSoC5/Timer_US.c **** void Timer_US_SetCaptureMode(uint8 captureMode) 
 567:Generated_Source\PSoC5/Timer_US.c **** {
 568:Generated_Source\PSoC5/Timer_US.c ****     /* This must only set to two bits of the control register associated */
 569:Generated_Source\PSoC5/Timer_US.c ****     captureMode = ((uint8)((uint8)captureMode << Timer_US_CTRL_CAP_MODE_SHIFT));
 570:Generated_Source\PSoC5/Timer_US.c ****     captureMode &= (Timer_US_CTRL_CAP_MODE_MASK);
 571:Generated_Source\PSoC5/Timer_US.c **** 
 572:Generated_Source\PSoC5/Timer_US.c ****     #if (!Timer_US_UDB_CONTROL_REG_REMOVED)
 573:Generated_Source\PSoC5/Timer_US.c ****         /* Clear the Current Setting */
 574:Generated_Source\PSoC5/Timer_US.c ****         Timer_US_CONTROL &= ((uint8)(~Timer_US_CTRL_CAP_MODE_MASK));
 575:Generated_Source\PSoC5/Timer_US.c **** 
 576:Generated_Source\PSoC5/Timer_US.c ****         /* Write The New Setting */
 577:Generated_Source\PSoC5/Timer_US.c ****         Timer_US_CONTROL |= captureMode;
ARM GAS  C:\Users\Julien\AppData\Local\Temp\ccANphxe.s 			page 16


 578:Generated_Source\PSoC5/Timer_US.c ****     #endif /* (!Timer_US_UDB_CONTROL_REG_REMOVED) */
 579:Generated_Source\PSoC5/Timer_US.c **** }
 580:Generated_Source\PSoC5/Timer_US.c **** #endif /* Remove API if Capture Mode is not Software Controlled */
 581:Generated_Source\PSoC5/Timer_US.c **** 
 582:Generated_Source\PSoC5/Timer_US.c **** 
 583:Generated_Source\PSoC5/Timer_US.c **** #if (Timer_US_SoftwareTriggerMode)
 584:Generated_Source\PSoC5/Timer_US.c **** 
 585:Generated_Source\PSoC5/Timer_US.c **** 
 586:Generated_Source\PSoC5/Timer_US.c **** /*******************************************************************************
 587:Generated_Source\PSoC5/Timer_US.c **** * Function Name: Timer_US_SetTriggerMode
 588:Generated_Source\PSoC5/Timer_US.c **** ********************************************************************************
 589:Generated_Source\PSoC5/Timer_US.c **** *
 590:Generated_Source\PSoC5/Timer_US.c **** * Summary:
 591:Generated_Source\PSoC5/Timer_US.c **** *  This function sets the trigger input mode
 592:Generated_Source\PSoC5/Timer_US.c **** *
 593:Generated_Source\PSoC5/Timer_US.c **** * Parameters:
 594:Generated_Source\PSoC5/Timer_US.c **** *  triggerMode: Pass one of the pre-defined Trigger Modes (except Software)
 595:Generated_Source\PSoC5/Timer_US.c ****     #define Timer_US__B_TIMER__TM_NONE 0x00u
 596:Generated_Source\PSoC5/Timer_US.c ****     #define Timer_US__B_TIMER__TM_RISINGEDGE 0x04u
 597:Generated_Source\PSoC5/Timer_US.c ****     #define Timer_US__B_TIMER__TM_FALLINGEDGE 0x08u
 598:Generated_Source\PSoC5/Timer_US.c ****     #define Timer_US__B_TIMER__TM_EITHEREDGE 0x0Cu
 599:Generated_Source\PSoC5/Timer_US.c ****     #define Timer_US__B_TIMER__TM_SOFTWARE 0x10u
 600:Generated_Source\PSoC5/Timer_US.c **** *
 601:Generated_Source\PSoC5/Timer_US.c **** * Return:
 602:Generated_Source\PSoC5/Timer_US.c **** *  void
 603:Generated_Source\PSoC5/Timer_US.c **** *
 604:Generated_Source\PSoC5/Timer_US.c **** *******************************************************************************/
 605:Generated_Source\PSoC5/Timer_US.c **** void Timer_US_SetTriggerMode(uint8 triggerMode) 
 606:Generated_Source\PSoC5/Timer_US.c **** {
 607:Generated_Source\PSoC5/Timer_US.c ****     /* This must only set to two bits of the control register associated */
 608:Generated_Source\PSoC5/Timer_US.c ****     triggerMode &= Timer_US_CTRL_TRIG_MODE_MASK;
 609:Generated_Source\PSoC5/Timer_US.c **** 
 610:Generated_Source\PSoC5/Timer_US.c ****     #if (!Timer_US_UDB_CONTROL_REG_REMOVED)   /* Remove assignment if control register is removed *
 611:Generated_Source\PSoC5/Timer_US.c ****     
 612:Generated_Source\PSoC5/Timer_US.c ****         /* Clear the Current Setting */
 613:Generated_Source\PSoC5/Timer_US.c ****         Timer_US_CONTROL &= ((uint8)(~Timer_US_CTRL_TRIG_MODE_MASK));
 614:Generated_Source\PSoC5/Timer_US.c **** 
 615:Generated_Source\PSoC5/Timer_US.c ****         /* Write The New Setting */
 616:Generated_Source\PSoC5/Timer_US.c ****         Timer_US_CONTROL |= (triggerMode | Timer_US__B_TIMER__TM_SOFTWARE);
 617:Generated_Source\PSoC5/Timer_US.c ****     #endif /* Remove code section if control register is not used */
 618:Generated_Source\PSoC5/Timer_US.c **** }
 619:Generated_Source\PSoC5/Timer_US.c **** #endif /* Remove API if Trigger Mode is not Software Controlled */
 620:Generated_Source\PSoC5/Timer_US.c **** 
 621:Generated_Source\PSoC5/Timer_US.c **** #if (Timer_US_EnableTriggerMode)
 622:Generated_Source\PSoC5/Timer_US.c **** 
 623:Generated_Source\PSoC5/Timer_US.c **** 
 624:Generated_Source\PSoC5/Timer_US.c **** /*******************************************************************************
 625:Generated_Source\PSoC5/Timer_US.c **** * Function Name: Timer_US_EnableTrigger
 626:Generated_Source\PSoC5/Timer_US.c **** ********************************************************************************
 627:Generated_Source\PSoC5/Timer_US.c **** *
 628:Generated_Source\PSoC5/Timer_US.c **** * Summary:
 629:Generated_Source\PSoC5/Timer_US.c **** *  Sets the control bit enabling Hardware Trigger mode
 630:Generated_Source\PSoC5/Timer_US.c **** *
 631:Generated_Source\PSoC5/Timer_US.c **** * Parameters:
 632:Generated_Source\PSoC5/Timer_US.c **** *  void
 633:Generated_Source\PSoC5/Timer_US.c **** *
 634:Generated_Source\PSoC5/Timer_US.c **** * Return:
ARM GAS  C:\Users\Julien\AppData\Local\Temp\ccANphxe.s 			page 17


 635:Generated_Source\PSoC5/Timer_US.c **** *  void
 636:Generated_Source\PSoC5/Timer_US.c **** *
 637:Generated_Source\PSoC5/Timer_US.c **** *******************************************************************************/
 638:Generated_Source\PSoC5/Timer_US.c **** void Timer_US_EnableTrigger(void) 
 639:Generated_Source\PSoC5/Timer_US.c **** {
 640:Generated_Source\PSoC5/Timer_US.c ****     #if (!Timer_US_UDB_CONTROL_REG_REMOVED)   /* Remove assignment if control register is removed *
 641:Generated_Source\PSoC5/Timer_US.c ****         Timer_US_CONTROL |= Timer_US_CTRL_TRIG_EN;
 642:Generated_Source\PSoC5/Timer_US.c ****     #endif /* Remove code section if control register is not used */
 643:Generated_Source\PSoC5/Timer_US.c **** }
 644:Generated_Source\PSoC5/Timer_US.c **** 
 645:Generated_Source\PSoC5/Timer_US.c **** 
 646:Generated_Source\PSoC5/Timer_US.c **** /*******************************************************************************
 647:Generated_Source\PSoC5/Timer_US.c **** * Function Name: Timer_US_DisableTrigger
 648:Generated_Source\PSoC5/Timer_US.c **** ********************************************************************************
 649:Generated_Source\PSoC5/Timer_US.c **** *
 650:Generated_Source\PSoC5/Timer_US.c **** * Summary:
 651:Generated_Source\PSoC5/Timer_US.c **** *  Clears the control bit enabling Hardware Trigger mode
 652:Generated_Source\PSoC5/Timer_US.c **** *
 653:Generated_Source\PSoC5/Timer_US.c **** * Parameters:
 654:Generated_Source\PSoC5/Timer_US.c **** *  void
 655:Generated_Source\PSoC5/Timer_US.c **** *
 656:Generated_Source\PSoC5/Timer_US.c **** * Return:
 657:Generated_Source\PSoC5/Timer_US.c **** *  void
 658:Generated_Source\PSoC5/Timer_US.c **** *
 659:Generated_Source\PSoC5/Timer_US.c **** *******************************************************************************/
 660:Generated_Source\PSoC5/Timer_US.c **** void Timer_US_DisableTrigger(void) 
 661:Generated_Source\PSoC5/Timer_US.c **** {
 662:Generated_Source\PSoC5/Timer_US.c ****     #if (!Timer_US_UDB_CONTROL_REG_REMOVED )   /* Remove assignment if control register is removed 
 663:Generated_Source\PSoC5/Timer_US.c ****         Timer_US_CONTROL &= ((uint8)(~Timer_US_CTRL_TRIG_EN));
 664:Generated_Source\PSoC5/Timer_US.c ****     #endif /* Remove code section if control register is not used */
 665:Generated_Source\PSoC5/Timer_US.c **** }
 666:Generated_Source\PSoC5/Timer_US.c **** #endif /* Remove API is Trigger Mode is set to None */
 667:Generated_Source\PSoC5/Timer_US.c **** 
 668:Generated_Source\PSoC5/Timer_US.c **** #if(Timer_US_InterruptOnCaptureCount)
 669:Generated_Source\PSoC5/Timer_US.c **** 
 670:Generated_Source\PSoC5/Timer_US.c **** 
 671:Generated_Source\PSoC5/Timer_US.c **** /*******************************************************************************
 672:Generated_Source\PSoC5/Timer_US.c **** * Function Name: Timer_US_SetInterruptCount
 673:Generated_Source\PSoC5/Timer_US.c **** ********************************************************************************
 674:Generated_Source\PSoC5/Timer_US.c **** *
 675:Generated_Source\PSoC5/Timer_US.c **** * Summary:
 676:Generated_Source\PSoC5/Timer_US.c **** *  This function sets the capture count before an interrupt is triggered.
 677:Generated_Source\PSoC5/Timer_US.c **** *
 678:Generated_Source\PSoC5/Timer_US.c **** * Parameters:
 679:Generated_Source\PSoC5/Timer_US.c **** *  interruptCount:  A value between 0 and 3 is valid.  If the value is 0, then
 680:Generated_Source\PSoC5/Timer_US.c **** *                   an interrupt will occur each time a capture occurs.
 681:Generated_Source\PSoC5/Timer_US.c **** *                   A value of 1 to 3 will cause the interrupt
 682:Generated_Source\PSoC5/Timer_US.c **** *                   to delay by the same number of captures.
 683:Generated_Source\PSoC5/Timer_US.c **** *
 684:Generated_Source\PSoC5/Timer_US.c **** * Return:
 685:Generated_Source\PSoC5/Timer_US.c **** *  void
 686:Generated_Source\PSoC5/Timer_US.c **** *
 687:Generated_Source\PSoC5/Timer_US.c **** *******************************************************************************/
 688:Generated_Source\PSoC5/Timer_US.c **** void Timer_US_SetInterruptCount(uint8 interruptCount) 
 689:Generated_Source\PSoC5/Timer_US.c **** {
 279              		.loc 1 689 0
 280              		.cfi_startproc
ARM GAS  C:\Users\Julien\AppData\Local\Temp\ccANphxe.s 			page 18


 281              		@ args = 0, pretend = 0, frame = 0
 282              		@ frame_needed = 0, uses_anonymous_args = 0
 283              		@ link register save eliminated.
 284              	.LVL7:
 285 0000 7047     		bx	lr
 286              		.cfi_endproc
 287              	.LFE12:
 288              		.size	Timer_US_SetInterruptCount, .-Timer_US_SetInterruptCount
 289 0002 00BF     		.section	.text.Timer_US_ClearFIFO,"ax",%progbits
 290              		.align	2
 291              		.global	Timer_US_ClearFIFO
 292              		.thumb
 293              		.thumb_func
 294              		.type	Timer_US_ClearFIFO, %function
 295              	Timer_US_ClearFIFO:
 296              	.LFB13:
 690:Generated_Source\PSoC5/Timer_US.c ****     /* This must only set to two bits of the control register associated */
 691:Generated_Source\PSoC5/Timer_US.c ****     interruptCount &= Timer_US_CTRL_INTCNT_MASK;
 692:Generated_Source\PSoC5/Timer_US.c **** 
 693:Generated_Source\PSoC5/Timer_US.c ****     #if (!Timer_US_UDB_CONTROL_REG_REMOVED)
 694:Generated_Source\PSoC5/Timer_US.c ****         /* Clear the Current Setting */
 695:Generated_Source\PSoC5/Timer_US.c ****         Timer_US_CONTROL &= ((uint8)(~Timer_US_CTRL_INTCNT_MASK));
 696:Generated_Source\PSoC5/Timer_US.c ****         /* Write The New Setting */
 697:Generated_Source\PSoC5/Timer_US.c ****         Timer_US_CONTROL |= interruptCount;
 698:Generated_Source\PSoC5/Timer_US.c ****     #endif /* (!Timer_US_UDB_CONTROL_REG_REMOVED) */
 699:Generated_Source\PSoC5/Timer_US.c **** }
 700:Generated_Source\PSoC5/Timer_US.c **** #endif /* Timer_US_InterruptOnCaptureCount */
 701:Generated_Source\PSoC5/Timer_US.c **** 
 702:Generated_Source\PSoC5/Timer_US.c **** 
 703:Generated_Source\PSoC5/Timer_US.c **** #if (Timer_US_UsingHWCaptureCounter)
 704:Generated_Source\PSoC5/Timer_US.c **** 
 705:Generated_Source\PSoC5/Timer_US.c **** 
 706:Generated_Source\PSoC5/Timer_US.c **** /*******************************************************************************
 707:Generated_Source\PSoC5/Timer_US.c **** * Function Name: Timer_US_SetCaptureCount
 708:Generated_Source\PSoC5/Timer_US.c **** ********************************************************************************
 709:Generated_Source\PSoC5/Timer_US.c **** *
 710:Generated_Source\PSoC5/Timer_US.c **** * Summary:
 711:Generated_Source\PSoC5/Timer_US.c **** *  This function sets the capture count
 712:Generated_Source\PSoC5/Timer_US.c **** *
 713:Generated_Source\PSoC5/Timer_US.c **** * Parameters:
 714:Generated_Source\PSoC5/Timer_US.c **** *  captureCount: A value between 2 and 127 inclusive is valid.  A value of 1
 715:Generated_Source\PSoC5/Timer_US.c **** *                to 127 will cause the interrupt to delay by the same number of
 716:Generated_Source\PSoC5/Timer_US.c **** *                captures.
 717:Generated_Source\PSoC5/Timer_US.c **** *
 718:Generated_Source\PSoC5/Timer_US.c **** * Return:
 719:Generated_Source\PSoC5/Timer_US.c **** *  void
 720:Generated_Source\PSoC5/Timer_US.c **** *
 721:Generated_Source\PSoC5/Timer_US.c **** *******************************************************************************/
 722:Generated_Source\PSoC5/Timer_US.c **** void Timer_US_SetCaptureCount(uint8 captureCount) 
 723:Generated_Source\PSoC5/Timer_US.c **** {
 724:Generated_Source\PSoC5/Timer_US.c ****     Timer_US_CAP_COUNT = captureCount;
 725:Generated_Source\PSoC5/Timer_US.c **** }
 726:Generated_Source\PSoC5/Timer_US.c **** 
 727:Generated_Source\PSoC5/Timer_US.c **** 
 728:Generated_Source\PSoC5/Timer_US.c **** /*******************************************************************************
 729:Generated_Source\PSoC5/Timer_US.c **** * Function Name: Timer_US_ReadCaptureCount
 730:Generated_Source\PSoC5/Timer_US.c **** ********************************************************************************
ARM GAS  C:\Users\Julien\AppData\Local\Temp\ccANphxe.s 			page 19


 731:Generated_Source\PSoC5/Timer_US.c **** *
 732:Generated_Source\PSoC5/Timer_US.c **** * Summary:
 733:Generated_Source\PSoC5/Timer_US.c **** *  This function reads the capture count setting
 734:Generated_Source\PSoC5/Timer_US.c **** *
 735:Generated_Source\PSoC5/Timer_US.c **** * Parameters:
 736:Generated_Source\PSoC5/Timer_US.c **** *  void
 737:Generated_Source\PSoC5/Timer_US.c **** *
 738:Generated_Source\PSoC5/Timer_US.c **** * Return:
 739:Generated_Source\PSoC5/Timer_US.c **** *  Returns the Capture Count Setting
 740:Generated_Source\PSoC5/Timer_US.c **** *
 741:Generated_Source\PSoC5/Timer_US.c **** *******************************************************************************/
 742:Generated_Source\PSoC5/Timer_US.c **** uint8 Timer_US_ReadCaptureCount(void) 
 743:Generated_Source\PSoC5/Timer_US.c **** {
 744:Generated_Source\PSoC5/Timer_US.c ****     return ((uint8)Timer_US_CAP_COUNT);
 745:Generated_Source\PSoC5/Timer_US.c **** }
 746:Generated_Source\PSoC5/Timer_US.c **** #endif /* Timer_US_UsingHWCaptureCounter */
 747:Generated_Source\PSoC5/Timer_US.c **** 
 748:Generated_Source\PSoC5/Timer_US.c **** 
 749:Generated_Source\PSoC5/Timer_US.c **** /*******************************************************************************
 750:Generated_Source\PSoC5/Timer_US.c **** * Function Name: Timer_US_ClearFIFO
 751:Generated_Source\PSoC5/Timer_US.c **** ********************************************************************************
 752:Generated_Source\PSoC5/Timer_US.c **** *
 753:Generated_Source\PSoC5/Timer_US.c **** * Summary:
 754:Generated_Source\PSoC5/Timer_US.c **** *  This function clears all capture data from the capture FIFO
 755:Generated_Source\PSoC5/Timer_US.c **** *
 756:Generated_Source\PSoC5/Timer_US.c **** * Parameters:
 757:Generated_Source\PSoC5/Timer_US.c **** *  void
 758:Generated_Source\PSoC5/Timer_US.c **** *
 759:Generated_Source\PSoC5/Timer_US.c **** * Return:
 760:Generated_Source\PSoC5/Timer_US.c **** *  void
 761:Generated_Source\PSoC5/Timer_US.c **** *
 762:Generated_Source\PSoC5/Timer_US.c **** *******************************************************************************/
 763:Generated_Source\PSoC5/Timer_US.c **** void Timer_US_ClearFIFO(void) 
 764:Generated_Source\PSoC5/Timer_US.c **** {
 297              		.loc 1 764 0
 298              		.cfi_startproc
 299              		@ args = 0, pretend = 0, frame = 0
 300              		@ frame_needed = 0, uses_anonymous_args = 0
 301              		.loc 1 764 0
 302 0000 08B5     		push	{r3, lr}
 303              		.cfi_def_cfa_offset 8
 304              		.cfi_offset 3, -8
 305              		.cfi_offset 14, -4
 765:Generated_Source\PSoC5/Timer_US.c ****     while(0u != (Timer_US_ReadStatusRegister() & Timer_US_STATUS_FIFONEMP))
 306              		.loc 1 765 0
 307 0002 01E0     		b	.L31
 308              	.L32:
 766:Generated_Source\PSoC5/Timer_US.c ****     {
 767:Generated_Source\PSoC5/Timer_US.c ****         (void)Timer_US_ReadCapture();
 309              		.loc 1 767 0
 310 0004 FFF7FEFF 		bl	Timer_US_ReadCapture
 311              	.LVL8:
 312              	.L31:
 765:Generated_Source\PSoC5/Timer_US.c ****     while(0u != (Timer_US_ReadStatusRegister() & Timer_US_STATUS_FIFONEMP))
 313              		.loc 1 765 0
 314 0008 FFF7FEFF 		bl	Timer_US_ReadStatusRegister
 315              	.LVL9:
ARM GAS  C:\Users\Julien\AppData\Local\Temp\ccANphxe.s 			page 20


 316 000c 10F0080F 		tst	r0, #8
 317 0010 F8D1     		bne	.L32
 768:Generated_Source\PSoC5/Timer_US.c ****     }
 769:Generated_Source\PSoC5/Timer_US.c **** }
 318              		.loc 1 769 0
 319 0012 08BD     		pop	{r3, pc}
 320              		.cfi_endproc
 321              	.LFE13:
 322              		.size	Timer_US_ClearFIFO, .-Timer_US_ClearFIFO
 323              		.section	.text.Timer_US_Init,"ax",%progbits
 324              		.align	2
 325              		.global	Timer_US_Init
 326              		.thumb
 327              		.thumb_func
 328              		.type	Timer_US_Init, %function
 329              	Timer_US_Init:
 330              	.LFB0:
  44:Generated_Source\PSoC5/Timer_US.c ****     #if(!Timer_US_UsingFixedFunction)
 331              		.loc 1 44 0
 332              		.cfi_startproc
 333              		@ args = 0, pretend = 0, frame = 0
 334              		@ frame_needed = 0, uses_anonymous_args = 0
 335 0000 08B5     		push	{r3, lr}
 336              		.cfi_def_cfa_offset 8
 337              		.cfi_offset 3, -8
 338              		.cfi_offset 14, -4
 118:Generated_Source\PSoC5/Timer_US.c ****     Timer_US_WriteCounter(Timer_US_INIT_PERIOD);
 339              		.loc 1 118 0
 340 0002 6FF07F40 		mvn	r0, #-16777216
 341 0006 FFF7FEFF 		bl	Timer_US_WritePeriod
 342              	.LVL10:
 119:Generated_Source\PSoC5/Timer_US.c **** 
 343              		.loc 1 119 0
 344 000a 6FF07F40 		mvn	r0, #-16777216
 345 000e FFF7FEFF 		bl	Timer_US_WriteCounter
 346              	.LVL11:
 142:Generated_Source\PSoC5/Timer_US.c **** 
 347              		.loc 1 142 0
 348 0012 FFF7FEFF 		bl	CyEnterCriticalSection
 349              	.LVL12:
 145:Generated_Source\PSoC5/Timer_US.c **** 
 350              		.loc 1 145 0
 351 0016 064A     		ldr	r2, .L36
 352 0018 1378     		ldrb	r3, [r2]	@ zero_extendqisi2
 353 001a 43F01003 		orr	r3, r3, #16
 354 001e 1370     		strb	r3, [r2]
 148:Generated_Source\PSoC5/Timer_US.c **** 
 355              		.loc 1 148 0
 356 0020 FFF7FEFF 		bl	CyExitCriticalSection
 357              	.LVL13:
 159:Generated_Source\PSoC5/Timer_US.c ****     #endif /* Configure additional features of UDB implementation */
 358              		.loc 1 159 0
 359 0024 FFF7FEFF 		bl	Timer_US_ClearFIFO
 360              	.LVL14:
 162:Generated_Source\PSoC5/Timer_US.c **** }
 361              		.loc 1 162 0
 362 0028 0220     		movs	r0, #2
ARM GAS  C:\Users\Julien\AppData\Local\Temp\ccANphxe.s 			page 21


 363 002a FFF7FEFF 		bl	Timer_US_SetInterruptMode
 364              	.LVL15:
 365 002e 08BD     		pop	{r3, pc}
 366              	.L37:
 367              		.align	2
 368              	.L36:
 369 0030 9A640040 		.word	1073767578
 370              		.cfi_endproc
 371              	.LFE0:
 372              		.size	Timer_US_Init, .-Timer_US_Init
 373              		.section	.text.Timer_US_Start,"ax",%progbits
 374              		.align	2
 375              		.global	Timer_US_Start
 376              		.thumb
 377              		.thumb_func
 378              		.type	Timer_US_Start, %function
 379              	Timer_US_Start:
 380              	.LFB2:
 216:Generated_Source\PSoC5/Timer_US.c ****     if(Timer_US_initVar == 0u)
 381              		.loc 1 216 0
 382              		.cfi_startproc
 383              		@ args = 0, pretend = 0, frame = 0
 384              		@ frame_needed = 0, uses_anonymous_args = 0
 385 0000 08B5     		push	{r3, lr}
 386              		.cfi_def_cfa_offset 8
 387              		.cfi_offset 3, -8
 388              		.cfi_offset 14, -4
 217:Generated_Source\PSoC5/Timer_US.c ****     {
 389              		.loc 1 217 0
 390 0002 044B     		ldr	r3, .L41
 391 0004 1B78     		ldrb	r3, [r3]	@ zero_extendqisi2
 392 0006 23B9     		cbnz	r3, .L38
 219:Generated_Source\PSoC5/Timer_US.c **** 
 393              		.loc 1 219 0
 394 0008 FFF7FEFF 		bl	Timer_US_Init
 395              	.LVL16:
 221:Generated_Source\PSoC5/Timer_US.c ****     }
 396              		.loc 1 221 0
 397 000c 0122     		movs	r2, #1
 398 000e 014B     		ldr	r3, .L41
 399 0010 1A70     		strb	r2, [r3]
 400              	.L38:
 401 0012 08BD     		pop	{r3, pc}
 402              	.L42:
 403              		.align	2
 404              	.L41:
 405 0014 00000000 		.word	.LANCHOR0
 406              		.cfi_endproc
 407              	.LFE2:
 408              		.size	Timer_US_Start, .-Timer_US_Start
 409              		.global	Timer_US_initVar
 410              		.bss
 411              		.set	.LANCHOR0,. + 0
 412              		.type	Timer_US_initVar, %object
 413              		.size	Timer_US_initVar, 1
 414              	Timer_US_initVar:
 415 0000 00       		.space	1
ARM GAS  C:\Users\Julien\AppData\Local\Temp\ccANphxe.s 			page 22


 416              		.text
 417              	.Letext0:
 418              		.file 2 "Generated_Source\\PSoC5\\cytypes.h"
 419              		.file 3 "Generated_Source\\PSoC5\\CyLib.h"