ARM GAS  C:\Users\Julien\AppData\Local\Temp\ccCYgjUS.s 			page 1


   1              		.syntax unified
   2              		.cpu cortex-m3
   3              		.fpu softvfp
   4              		.eabi_attribute 20, 1
   5              		.eabi_attribute 21, 1
   6              		.eabi_attribute 23, 3
   7              		.eabi_attribute 24, 1
   8              		.eabi_attribute 25, 1
   9              		.eabi_attribute 26, 1
  10              		.eabi_attribute 30, 1
  11              		.eabi_attribute 34, 1
  12              		.eabi_attribute 18, 4
  13              		.thumb
  14              		.file	"main.c"
  15              		.text
  16              	.Ltext0:
  17              		.cfi_sections	.debug_frame
  18              		.section	.text.interrupt_capture_out_func,"ax",%progbits
  19              		.align	2
  20              		.global	interrupt_capture_out_func
  21              		.thumb
  22              		.thumb_func
  23              		.type	interrupt_capture_out_func, %function
  24              	interrupt_capture_out_func:
  25              	.LFB64:
  26              		.file 1 "main.c"
   1:main.c        **** /* ========================================
   2:main.c        ****  *
   3:main.c        ****  * Copyright YOUR COMPANY, THE YEAR
   4:main.c        ****  * All Rights Reserved
   5:main.c        ****  * UNPUBLISHED, LICENSED SOFTWARE.
   6:main.c        ****  *
   7:main.c        ****  * CONFIDENTIAL AND PROPRIETARY INFORMATION
   8:main.c        ****  * WHICH IS THE PROPERTY OF your company.
   9:main.c        ****  *
  10:main.c        ****  * ========================================
  11:main.c        **** */
  12:main.c        **** #include "project.h"
  13:main.c        **** 
  14:main.c        **** int timerCount;
  15:main.c        **** 
  16:main.c        **** CY_ISR(stop_timer_Inter)
  17:main.c        **** {
  18:main.c        ****     timerCount = Timer_1_ReadCapture();
  19:main.c        ****     //Timer_1_STATUS_CAPTURE; // Remise à 0 status register
  20:main.c        ****     Timer_1_ReadStatusRegister();
  21:main.c        ****     Control_Reg_1_Write(1);
  22:main.c        ****     //CharLCD_1_Position(0u, 0u);
  23:main.c        ****     //CharLCD_1_PrintInt8( (uint8)timerCount);
  24:main.c        **** }
  25:main.c        **** 
  26:main.c        **** CY_ISR(interrupt_capture_out_func)
  27:main.c        **** {
  27              		.loc 1 27 0
  28              		.cfi_startproc
  29              		@ args = 0, pretend = 0, frame = 0
  30              		@ frame_needed = 0, uses_anonymous_args = 0
ARM GAS  C:\Users\Julien\AppData\Local\Temp\ccCYgjUS.s 			page 2


  31              		@ link register save eliminated.
  32 0000 7047     		bx	lr
  33              		.cfi_endproc
  34              	.LFE64:
  35              		.size	interrupt_capture_out_func, .-interrupt_capture_out_func
  36 0002 00BF     		.section	.text.interrupt_tc_func,"ax",%progbits
  37              		.align	2
  38              		.global	interrupt_tc_func
  39              		.thumb
  40              		.thumb_func
  41              		.type	interrupt_tc_func, %function
  42              	interrupt_tc_func:
  43              	.LFB65:
  28:main.c        ****     //timerCount = Timer_1_ReadCapture();
  29:main.c        ****     //Timer_1_STATUS_CAPTURE; // Remise à 0 status register
  30:main.c        ****     //Control_Reg_1_Write(1);
  31:main.c        **** }
  32:main.c        **** 
  33:main.c        **** CY_ISR(interrupt_tc_func)
  34:main.c        **** {
  44              		.loc 1 34 0
  45              		.cfi_startproc
  46              		@ args = 0, pretend = 0, frame = 0
  47              		@ frame_needed = 0, uses_anonymous_args = 0
  48              		@ link register save eliminated.
  49 0000 7047     		bx	lr
  50              		.cfi_endproc
  51              	.LFE65:
  52              		.size	interrupt_tc_func, .-interrupt_tc_func
  53 0002 00BF     		.section	.text.stop_timer_Inter,"ax",%progbits
  54              		.align	2
  55              		.global	stop_timer_Inter
  56              		.thumb
  57              		.thumb_func
  58              		.type	stop_timer_Inter, %function
  59              	stop_timer_Inter:
  60              	.LFB63:
  17:main.c        ****     timerCount = Timer_1_ReadCapture();
  61              		.loc 1 17 0
  62              		.cfi_startproc
  63              		@ args = 0, pretend = 0, frame = 0
  64              		@ frame_needed = 0, uses_anonymous_args = 0
  17:main.c        ****     timerCount = Timer_1_ReadCapture();
  65              		.loc 1 17 0
  66 0000 08B5     		push	{r3, lr}
  67              		.cfi_def_cfa_offset 8
  68              		.cfi_offset 3, -8
  69              		.cfi_offset 14, -4
  18:main.c        ****     //Timer_1_STATUS_CAPTURE; // Remise à 0 status register
  70              		.loc 1 18 0
  71 0002 FFF7FEFF 		bl	Timer_1_ReadCapture
  72              	.LVL0:
  73 0006 044B     		ldr	r3, .L5
  74 0008 1860     		str	r0, [r3]
  20:main.c        ****     Control_Reg_1_Write(1);
  75              		.loc 1 20 0
  76 000a FFF7FEFF 		bl	Timer_1_ReadStatusRegister
ARM GAS  C:\Users\Julien\AppData\Local\Temp\ccCYgjUS.s 			page 3


  77              	.LVL1:
  21:main.c        ****     //CharLCD_1_Position(0u, 0u);
  78              		.loc 1 21 0
  79 000e 0120     		movs	r0, #1
  80 0010 FFF7FEFF 		bl	Control_Reg_1_Write
  81              	.LVL2:
  82 0014 08BD     		pop	{r3, pc}
  83              	.L6:
  84 0016 00BF     		.align	2
  85              	.L5:
  86 0018 00000000 		.word	timerCount
  87              		.cfi_endproc
  88              	.LFE63:
  89              		.size	stop_timer_Inter, .-stop_timer_Inter
  90              		.section	.text.main,"ax",%progbits
  91              		.align	2
  92              		.global	main
  93              		.thumb
  94              		.thumb_func
  95              		.type	main, %function
  96              	main:
  97              	.LFB66:
  35:main.c        ****     //timerCount = Timer_1_ReadCapture();
  36:main.c        ****     //Timer_1_STATUS_CAPTURE; // Remise à 0 status register
  37:main.c        ****     //Control_Reg_1_Write(1);
  38:main.c        ****     //CharLCD_1_Position(1u, 0u);
  39:main.c        ****     //CharLCD_1_PrintString("TC_INTERRUPT");
  40:main.c        **** }
  41:main.c        **** 
  42:main.c        **** 
  43:main.c        **** int main(void)
  44:main.c        **** {
  98              		.loc 1 44 0
  99              		.cfi_startproc
 100              		@ Volatile: function does not return.
 101              		@ args = 0, pretend = 0, frame = 0
 102              		@ frame_needed = 0, uses_anonymous_args = 0
 103 0000 08B5     		push	{r3, lr}
 104              		.cfi_def_cfa_offset 8
 105              		.cfi_offset 3, -8
 106              		.cfi_offset 14, -4
  45:main.c        ****     timerCount=0;
 107              		.loc 1 45 0
 108 0002 0024     		movs	r4, #0
 109 0004 134B     		ldr	r3, .L10
 110 0006 1C60     		str	r4, [r3]
  46:main.c        ****     
  47:main.c        ****     stop_timer_StartEx(stop_timer_Inter);
 111              		.loc 1 47 0
 112 0008 1348     		ldr	r0, .L10+4
 113 000a FFF7FEFF 		bl	stop_timer_StartEx
 114              	.LVL3:
  48:main.c        ****     interrupt_tc_StartEx(interrupt_tc_func);
 115              		.loc 1 48 0
 116 000e 1348     		ldr	r0, .L10+8
 117 0010 FFF7FEFF 		bl	interrupt_tc_StartEx
 118              	.LVL4:
ARM GAS  C:\Users\Julien\AppData\Local\Temp\ccCYgjUS.s 			page 4


  49:main.c        ****     interrupt_capture_out_StartEx(interrupt_capture_out_func);
 119              		.loc 1 49 0
 120 0014 1248     		ldr	r0, .L10+12
 121 0016 FFF7FEFF 		bl	interrupt_capture_out_StartEx
 122              	.LVL5:
  50:main.c        ****     
  51:main.c        ****     CyGlobalIntEnable; /* Enable global interrupts. */
 123              		.loc 1 51 0
 124              	@ 51 "main.c" 1
 125 001a 62B6     		CPSIE   i
 126              	@ 0 "" 2
  52:main.c        **** 
  53:main.c        ****     PWM_1_Start();
 127              		.loc 1 53 0
 128              		.thumb
 129 001c FFF7FEFF 		bl	PWM_1_Start
 130              	.LVL6:
  54:main.c        ****     Timer_1_Start();
 131              		.loc 1 54 0
 132 0020 FFF7FEFF 		bl	Timer_1_Start
 133              	.LVL7:
  55:main.c        ****     Timer_1_STATUS_CAPTURE; // Remise à 0 status register
  56:main.c        ****     CharLCD_1_Start();
 134              		.loc 1 56 0
 135 0024 FFF7FEFF 		bl	CharLCD_1_Start
 136              	.LVL8:
  57:main.c        ****     CharLCD_1_Position(0u, 0u);
 137              		.loc 1 57 0
 138 0028 2046     		mov	r0, r4
 139 002a 2146     		mov	r1, r4
 140 002c FFF7FEFF 		bl	CharLCD_1_Position
 141              	.LVL9:
  58:main.c        ****     CharLCD_1_PrintString("       ");
 142              		.loc 1 58 0
 143 0030 0C48     		ldr	r0, .L10+16
 144 0032 FFF7FEFF 		bl	CharLCD_1_PrintString
 145              	.LVL10:
  59:main.c        ****     
  60:main.c        ****     Control_Reg_1_Write(0);
 146              		.loc 1 60 0
 147 0036 2046     		mov	r0, r4
 148 0038 FFF7FEFF 		bl	Control_Reg_1_Write
 149              	.LVL11:
 150              	.L8:
  61:main.c        **** 
  62:main.c        ****     for(;;)
  63:main.c        ****     {
  64:main.c        ****         CharLCD_1_Position(0u, 0u);
 151              		.loc 1 64 0 discriminator 1
 152 003c 0020     		movs	r0, #0
 153 003e 0146     		mov	r1, r0
 154 0040 FFF7FEFF 		bl	CharLCD_1_Position
 155              	.LVL12:
  65:main.c        ****         CharLCD_1_PrintInt32(timerCount);
 156              		.loc 1 65 0 discriminator 1
 157 0044 034B     		ldr	r3, .L10
 158 0046 1868     		ldr	r0, [r3]
ARM GAS  C:\Users\Julien\AppData\Local\Temp\ccCYgjUS.s 			page 5


 159 0048 FFF7FEFF 		bl	CharLCD_1_PrintInt32
 160              	.LVL13:
  66:main.c        ****         Control_Reg_1_Write(0);
 161              		.loc 1 66 0 discriminator 1
 162 004c 0020     		movs	r0, #0
 163 004e FFF7FEFF 		bl	Control_Reg_1_Write
 164              	.LVL14:
  67:main.c        ****         //timerCount=0;
  68:main.c        ****     }
 165              		.loc 1 68 0 discriminator 1
 166 0052 F3E7     		b	.L8
 167              	.L11:
 168              		.align	2
 169              	.L10:
 170 0054 00000000 		.word	timerCount
 171 0058 00000000 		.word	stop_timer_Inter
 172 005c 00000000 		.word	interrupt_tc_func
 173 0060 00000000 		.word	interrupt_capture_out_func
 174 0064 00000000 		.word	.LC0
 175              		.cfi_endproc
 176              	.LFE66:
 177              		.size	main, .-main
 178              		.comm	timerCount,4,4
 179              		.section	.rodata.str1.4,"aMS",%progbits,1
 180              		.align	2
 181              	.LC0:
 182 0000 20202020 		.ascii	"       \000"
 182      20202000 
 183              		.text
 184              	.Letext0:
 185              		.file 2 "c:\\program files (x86)\\cypress\\psoc creator\\4.0\\psoc creator\\import\\gnu\\arm\\4.9.
 186              		.file 3 "c:\\program files (x86)\\cypress\\psoc creator\\4.0\\psoc creator\\import\\gnu\\arm\\4.9.
 187              		.file 4 "Generated_Source\\PSoC5/cytypes.h"
 188              		.file 5 "Generated_Source\\PSoC5/core_cm3.h"
 189              		.file 6 "Generated_Source\\PSoC5/Timer_1.h"
 190              		.file 7 "Generated_Source\\PSoC5/Control_Reg_1.h"
 191              		.file 8 "Generated_Source\\PSoC5/stop_timer.h"
 192              		.file 9 "Generated_Source\\PSoC5/interrupt_tc.h"
 193              		.file 10 "Generated_Source\\PSoC5/interrupt_capture_out.h"
 194              		.file 11 "Generated_Source\\PSoC5/PWM_1.h"
 195              		.file 12 "Generated_Source\\PSoC5/CharLCD_1.h"