ARM GAS  C:\Users\Julien\AppData\Local\Temp\cco0ki48.s 			page 1


   1              		.syntax unified
   2              		.cpu cortex-m3
   3              		.fpu softvfp
   4              		.eabi_attribute 20, 1
   5              		.eabi_attribute 21, 1
   6              		.eabi_attribute 23, 3
   7              		.eabi_attribute 24, 1
   8              		.eabi_attribute 25, 1
   9              		.eabi_attribute 26, 1
  10              		.eabi_attribute 30, 1
  11              		.eabi_attribute 34, 1
  12              		.eabi_attribute 18, 4
  13              		.thumb
  14              		.file	"motor_management.c"
  15              		.text
  16              	.Ltext0:
  17              		.cfi_sections	.debug_frame
  18              		.section	.text.init_motor_management,"ax",%progbits
  19              		.align	2
  20              		.global	init_motor_management
  21              		.thumb
  22              		.thumb_func
  23              		.type	init_motor_management, %function
  24              	init_motor_management:
  25              	.LFB63:
  26              		.file 1 "motor_management.c"
   1:motor_management.c **** /* ========================================
   2:motor_management.c ****  *
   3:motor_management.c ****  * Copyright YOUR COMPANY, THE YEAR
   4:motor_management.c ****  * All Rights Reserved
   5:motor_management.c ****  * UNPUBLISHED, LICENSED SOFTWARE.
   6:motor_management.c ****  *
   7:motor_management.c ****  * CONFIDENTIAL AND PROPRIETARY INFORMATION
   8:motor_management.c ****  * WHICH IS THE PROPERTY OF your company.
   9:motor_management.c ****  *
  10:motor_management.c ****  * ========================================
  11:motor_management.c **** */
  12:motor_management.c **** /* ========================================
  13:motor_management.c ****  *
  14:motor_management.c ****  * Copyright YOUR COMPANY, THE YEAR
  15:motor_management.c ****  * All Rights Reserved
  16:motor_management.c ****  * UNPUBLISHED, LICENSED SOFTWARE.
  17:motor_management.c ****  *
  18:motor_management.c ****  * CONFIDENTIAL AND PROPRIETARY INFORMATION
  19:motor_management.c ****  * WHICH IS THE PROPERTY OF your company.
  20:motor_management.c ****  *
  21:motor_management.c ****  * ========================================
  22:motor_management.c **** */
  23:motor_management.c **** #include "project.h"
  24:motor_management.c **** #include "motor_management.h"
  25:motor_management.c **** 
  26:motor_management.c **** void init_motor_management()
  27:motor_management.c **** {
  27              		.loc 1 27 0
  28              		.cfi_startproc
  29              		@ args = 0, pretend = 0, frame = 0
  30              		@ frame_needed = 0, uses_anonymous_args = 0
ARM GAS  C:\Users\Julien\AppData\Local\Temp\cco0ki48.s 			page 2


  31 0000 08B5     		push	{r3, lr}
  32              		.cfi_def_cfa_offset 8
  33              		.cfi_offset 3, -8
  34              		.cfi_offset 14, -4
  28:motor_management.c ****     XBee_UART_Start();       //Enable UART block
  35              		.loc 1 28 0
  36 0002 FFF7FEFF 		bl	XBee_UART_Start
  37              	.LVL0:
  29:motor_management.c ****     XBee_UART_Init();
  38              		.loc 1 29 0
  39 0006 FFF7FEFF 		bl	XBee_UART_Init
  40              	.LVL1:
  30:motor_management.c ****     PWM_Front_Start();
  41              		.loc 1 30 0
  42 000a FFF7FEFF 		bl	PWM_Front_Start
  43              	.LVL2:
  31:motor_management.c ****     PWM_Back_Start();
  44              		.loc 1 31 0
  45 000e FFF7FEFF 		bl	PWM_Back_Start
  46              	.LVL3:
  32:motor_management.c ****     PWM_Front_Init();
  47              		.loc 1 32 0
  48 0012 FFF7FEFF 		bl	PWM_Front_Init
  49              	.LVL4:
  33:motor_management.c ****     PWM_Back_Init();   
  50              		.loc 1 33 0
  51 0016 FFF7FEFF 		bl	PWM_Back_Init
  52              	.LVL5:
  53 001a 08BD     		pop	{r3, pc}
  54              		.cfi_endproc
  55              	.LFE63:
  56              		.size	init_motor_management, .-init_motor_management
  57              		.section	.text.avance_moteurs,"ax",%progbits
  58              		.align	2
  59              		.global	avance_moteurs
  60              		.thumb
  61              		.thumb_func
  62              		.type	avance_moteurs, %function
  63              	avance_moteurs:
  64              	.LFB65:
  34:motor_management.c **** }
  35:motor_management.c **** 
  36:motor_management.c **** void control_moteurs()
  37:motor_management.c **** {
  38:motor_management.c ****     uint8 Received_Data;
  39:motor_management.c ****     
  40:motor_management.c ****     if(XBee_UART_GetRxBufferSize()>0)
  41:motor_management.c ****     {   
  42:motor_management.c ****         Received_Data = XBee_UART_GetChar();    
  43:motor_management.c ****         if(Received_Data == KEY_AVANCE)
  44:motor_management.c ****         {
  45:motor_management.c ****             // AVANCE TOUS LES MOTEURS
  46:motor_management.c ****             avance_moteurs();
  47:motor_management.c ****         }
  48:motor_management.c ****         else if(Received_Data == KEY_RECULE)
  49:motor_management.c ****         {
  50:motor_management.c ****             // RECULE TOUS LES MOTEURS
ARM GAS  C:\Users\Julien\AppData\Local\Temp\cco0ki48.s 			page 3


  51:motor_management.c ****             recule_moteurs();
  52:motor_management.c ****         }
  53:motor_management.c ****         else if(Received_Data == KEY_DROITE)
  54:motor_management.c ****         {
  55:motor_management.c ****             // TOURNE À DROITE
  56:motor_management.c ****             tourner_droite();            
  57:motor_management.c ****         }
  58:motor_management.c ****         else if(Received_Data == KEY_GAUCHE)
  59:motor_management.c ****         {
  60:motor_management.c ****             // TOURNE À GAUCHE
  61:motor_management.c ****             tourner_gauche();                                        
  62:motor_management.c ****         }
  63:motor_management.c ****     }    
  64:motor_management.c **** }
  65:motor_management.c **** 
  66:motor_management.c **** void avance_moteurs(void)
  67:motor_management.c **** {
  65              		.loc 1 67 0
  66              		.cfi_startproc
  67              		@ args = 0, pretend = 0, frame = 0
  68              		@ frame_needed = 0, uses_anonymous_args = 0
  69 0000 08B5     		push	{r3, lr}
  70              		.cfi_def_cfa_offset 8
  71              		.cfi_offset 3, -8
  72              		.cfi_offset 14, -4
  68:motor_management.c ****     ctrl_moteur_Write(CTRL_AVANCE);
  73              		.loc 1 68 0
  74 0002 0120     		movs	r0, #1
  75 0004 FFF7FEFF 		bl	ctrl_moteur_Write
  76              	.LVL6:
  69:motor_management.c ****     
  70:motor_management.c ****     PWM_Front_WriteCompare1(VITESSE_1); // Moteur Front Left    
  77              		.loc 1 70 0
  78 0008 6420     		movs	r0, #100
  79 000a FFF7FEFF 		bl	PWM_Front_WriteCompare1
  80              	.LVL7:
  71:motor_management.c ****     PWM_Front_WriteCompare2(VITESSE_1); // Moteur Front Right
  81              		.loc 1 71 0
  82 000e 6420     		movs	r0, #100
  83 0010 FFF7FEFF 		bl	PWM_Front_WriteCompare2
  84              	.LVL8:
  72:motor_management.c ****     PWM_Back_WriteCompare1(VITESSE_1);  // Moteur Back Left
  85              		.loc 1 72 0
  86 0014 6420     		movs	r0, #100
  87 0016 FFF7FEFF 		bl	PWM_Back_WriteCompare1
  88              	.LVL9:
  73:motor_management.c ****     PWM_Back_WriteCompare2(VITESSE_1);  // Moteur Back Right
  89              		.loc 1 73 0
  90 001a 6420     		movs	r0, #100
  91 001c FFF7FEFF 		bl	PWM_Back_WriteCompare2
  92              	.LVL10:
  93 0020 08BD     		pop	{r3, pc}
  94              		.cfi_endproc
  95              	.LFE65:
  96              		.size	avance_moteurs, .-avance_moteurs
  97 0022 00BF     		.section	.text.recule_moteurs,"ax",%progbits
  98              		.align	2
ARM GAS  C:\Users\Julien\AppData\Local\Temp\cco0ki48.s 			page 4


  99              		.global	recule_moteurs
 100              		.thumb
 101              		.thumb_func
 102              		.type	recule_moteurs, %function
 103              	recule_moteurs:
 104              	.LFB66:
  74:motor_management.c **** }
  75:motor_management.c **** void recule_moteurs(void)
  76:motor_management.c **** {
 105              		.loc 1 76 0
 106              		.cfi_startproc
 107              		@ args = 0, pretend = 0, frame = 0
 108              		@ frame_needed = 0, uses_anonymous_args = 0
 109 0000 08B5     		push	{r3, lr}
 110              		.cfi_def_cfa_offset 8
 111              		.cfi_offset 3, -8
 112              		.cfi_offset 14, -4
  77:motor_management.c ****     ctrl_moteur_Write(CTRL_RECULE);
 113              		.loc 1 77 0
 114 0002 0120     		movs	r0, #1
 115 0004 FFF7FEFF 		bl	ctrl_moteur_Write
 116              	.LVL11:
  78:motor_management.c ****     
  79:motor_management.c ****     PWM_Front_WriteCompare1(VITESSE_2); // Moteur Front Left    
 117              		.loc 1 79 0
 118 0008 0520     		movs	r0, #5
 119 000a FFF7FEFF 		bl	PWM_Front_WriteCompare1
 120              	.LVL12:
  80:motor_management.c ****     PWM_Front_WriteCompare2(VITESSE_1); // Moteur Front Right
 121              		.loc 1 80 0
 122 000e 6420     		movs	r0, #100
 123 0010 FFF7FEFF 		bl	PWM_Front_WriteCompare2
 124              	.LVL13:
  81:motor_management.c ****     PWM_Back_WriteCompare1(VITESSE_1);  // Moteur Back Left
 125              		.loc 1 81 0
 126 0014 6420     		movs	r0, #100
 127 0016 FFF7FEFF 		bl	PWM_Back_WriteCompare1
 128              	.LVL14:
  82:motor_management.c ****     PWM_Back_WriteCompare2(VITESSE_1);  // Moteur Back Right
 129              		.loc 1 82 0
 130 001a 6420     		movs	r0, #100
 131 001c FFF7FEFF 		bl	PWM_Back_WriteCompare2
 132              	.LVL15:
 133 0020 08BD     		pop	{r3, pc}
 134              		.cfi_endproc
 135              	.LFE66:
 136              		.size	recule_moteurs, .-recule_moteurs
 137 0022 00BF     		.section	.text.tourner_droite,"ax",%progbits
 138              		.align	2
 139              		.global	tourner_droite
 140              		.thumb
 141              		.thumb_func
 142              		.type	tourner_droite, %function
 143              	tourner_droite:
 144              	.LFB67:
  83:motor_management.c **** }
  84:motor_management.c **** 
ARM GAS  C:\Users\Julien\AppData\Local\Temp\cco0ki48.s 			page 5


  85:motor_management.c **** void tourner_droite(void)
  86:motor_management.c **** {
 145              		.loc 1 86 0
 146              		.cfi_startproc
 147              		@ args = 0, pretend = 0, frame = 0
 148              		@ frame_needed = 0, uses_anonymous_args = 0
 149 0000 08B5     		push	{r3, lr}
 150              		.cfi_def_cfa_offset 8
 151              		.cfi_offset 3, -8
 152              		.cfi_offset 14, -4
  87:motor_management.c ****     ctrl_moteur_Write(CTRL_DROITE);
 153              		.loc 1 87 0
 154 0002 0120     		movs	r0, #1
 155 0004 FFF7FEFF 		bl	ctrl_moteur_Write
 156              	.LVL16:
  88:motor_management.c ****     
  89:motor_management.c ****     PWM_Front_WriteCompare1(VITESSE_1); // Moteur Front Left    
 157              		.loc 1 89 0
 158 0008 6420     		movs	r0, #100
 159 000a FFF7FEFF 		bl	PWM_Front_WriteCompare1
 160              	.LVL17:
  90:motor_management.c ****     PWM_Front_WriteCompare2(VITESSE_1); // Moteur Front Right
 161              		.loc 1 90 0
 162 000e 6420     		movs	r0, #100
 163 0010 FFF7FEFF 		bl	PWM_Front_WriteCompare2
 164              	.LVL18:
  91:motor_management.c ****     PWM_Back_WriteCompare1(VITESSE_1);  // Moteur Back Left
 165              		.loc 1 91 0
 166 0014 6420     		movs	r0, #100
 167 0016 FFF7FEFF 		bl	PWM_Back_WriteCompare1
 168              	.LVL19:
  92:motor_management.c ****     PWM_Back_WriteCompare2(VITESSE_1);  // Moteur Back Right
 169              		.loc 1 92 0
 170 001a 6420     		movs	r0, #100
 171 001c FFF7FEFF 		bl	PWM_Back_WriteCompare2
 172              	.LVL20:
 173 0020 08BD     		pop	{r3, pc}
 174              		.cfi_endproc
 175              	.LFE67:
 176              		.size	tourner_droite, .-tourner_droite
 177 0022 00BF     		.section	.text.tourner_gauche,"ax",%progbits
 178              		.align	2
 179              		.global	tourner_gauche
 180              		.thumb
 181              		.thumb_func
 182              		.type	tourner_gauche, %function
 183              	tourner_gauche:
 184              	.LFB68:
  93:motor_management.c **** } 
  94:motor_management.c **** 
  95:motor_management.c **** void tourner_gauche(void)
  96:motor_management.c **** {
 185              		.loc 1 96 0
 186              		.cfi_startproc
 187              		@ args = 0, pretend = 0, frame = 0
 188              		@ frame_needed = 0, uses_anonymous_args = 0
 189 0000 08B5     		push	{r3, lr}
ARM GAS  C:\Users\Julien\AppData\Local\Temp\cco0ki48.s 			page 6


 190              		.cfi_def_cfa_offset 8
 191              		.cfi_offset 3, -8
 192              		.cfi_offset 14, -4
  97:motor_management.c ****     ctrl_moteur_Write(CTRL_GAUCHE);
 193              		.loc 1 97 0
 194 0002 0120     		movs	r0, #1
 195 0004 FFF7FEFF 		bl	ctrl_moteur_Write
 196              	.LVL21:
  98:motor_management.c ****     
  99:motor_management.c ****     PWM_Front_WriteCompare1(VITESSE_1); // Moteur Front Left    
 197              		.loc 1 99 0
 198 0008 6420     		movs	r0, #100
 199 000a FFF7FEFF 		bl	PWM_Front_WriteCompare1
 200              	.LVL22:
 100:motor_management.c ****     PWM_Front_WriteCompare2(VITESSE_1); // Moteur Front Right
 201              		.loc 1 100 0
 202 000e 6420     		movs	r0, #100
 203 0010 FFF7FEFF 		bl	PWM_Front_WriteCompare2
 204              	.LVL23:
 101:motor_management.c ****     PWM_Back_WriteCompare1(VITESSE_1);  // Moteur Back Left
 205              		.loc 1 101 0
 206 0014 6420     		movs	r0, #100
 207 0016 FFF7FEFF 		bl	PWM_Back_WriteCompare1
 208              	.LVL24:
 102:motor_management.c ****     PWM_Back_WriteCompare2(VITESSE_1);  // Moteur Back Right
 209              		.loc 1 102 0
 210 001a 6420     		movs	r0, #100
 211 001c FFF7FEFF 		bl	PWM_Back_WriteCompare2
 212              	.LVL25:
 213 0020 08BD     		pop	{r3, pc}
 214              		.cfi_endproc
 215              	.LFE68:
 216              		.size	tourner_gauche, .-tourner_gauche
 217 0022 00BF     		.section	.text.control_moteurs,"ax",%progbits
 218              		.align	2
 219              		.global	control_moteurs
 220              		.thumb
 221              		.thumb_func
 222              		.type	control_moteurs, %function
 223              	control_moteurs:
 224              	.LFB64:
  37:motor_management.c ****     uint8 Received_Data;
 225              		.loc 1 37 0
 226              		.cfi_startproc
 227              		@ args = 0, pretend = 0, frame = 0
 228              		@ frame_needed = 0, uses_anonymous_args = 0
 229 0000 08B5     		push	{r3, lr}
 230              		.cfi_def_cfa_offset 8
 231              		.cfi_offset 3, -8
 232              		.cfi_offset 14, -4
  40:motor_management.c ****     {   
 233              		.loc 1 40 0
 234 0002 FFF7FEFF 		bl	XBee_UART_GetRxBufferSize
 235              	.LVL26:
 236 0006 A0B1     		cbz	r0, .L11
  42:motor_management.c ****         if(Received_Data == KEY_AVANCE)
 237              		.loc 1 42 0
ARM GAS  C:\Users\Julien\AppData\Local\Temp\cco0ki48.s 			page 7


 238 0008 FFF7FEFF 		bl	XBee_UART_GetChar
 239              	.LVL27:
  43:motor_management.c ****         {
 240              		.loc 1 43 0
 241 000c 6528     		cmp	r0, #101
 242 000e 02D1     		bne	.L13
  46:motor_management.c ****         }
 243              		.loc 1 46 0
 244 0010 FFF7FEFF 		bl	avance_moteurs
 245              	.LVL28:
 246 0014 08BD     		pop	{r3, pc}
 247              	.LVL29:
 248              	.L13:
  48:motor_management.c ****         {
 249              		.loc 1 48 0
 250 0016 7828     		cmp	r0, #120
 251 0018 02D1     		bne	.L14
  51:motor_management.c ****         }
 252              		.loc 1 51 0
 253 001a FFF7FEFF 		bl	recule_moteurs
 254              	.LVL30:
 255 001e 08BD     		pop	{r3, pc}
 256              	.LVL31:
 257              	.L14:
  53:motor_management.c ****         {
 258              		.loc 1 53 0
 259 0020 7328     		cmp	r0, #115
 260 0022 02D1     		bne	.L15
  56:motor_management.c ****         }
 261              		.loc 1 56 0
 262 0024 FFF7FEFF 		bl	tourner_droite
 263              	.LVL32:
 264 0028 08BD     		pop	{r3, pc}
 265              	.LVL33:
 266              	.L15:
  58:motor_management.c ****         {
 267              		.loc 1 58 0
 268 002a 6628     		cmp	r0, #102
 269 002c 01D1     		bne	.L11
  61:motor_management.c ****         }
 270              		.loc 1 61 0
 271 002e FFF7FEFF 		bl	tourner_gauche
 272              	.LVL34:
 273              	.L11:
 274 0032 08BD     		pop	{r3, pc}
 275              		.cfi_endproc
 276              	.LFE64:
 277              		.size	control_moteurs, .-control_moteurs
 278              		.text
 279              	.Letext0:
 280              		.file 2 "c:\\program files (x86)\\cypress\\psoc creator\\4.0\\psoc creator\\import\\gnu\\arm\\4.9.
 281              		.file 3 "c:\\program files (x86)\\cypress\\psoc creator\\4.0\\psoc creator\\import\\gnu\\arm\\4.9.
 282              		.file 4 "Generated_Source\\PSoC5/cytypes.h"
 283              		.file 5 "Generated_Source\\PSoC5/XBee_UART.h"
 284              		.file 6 "Generated_Source\\PSoC5/PWM_Front.h"
 285              		.file 7 "Generated_Source\\PSoC5/PWM_Back.h"
 286              		.file 8 "Generated_Source\\PSoC5/ctrl_moteur.h"
ARM GAS  C:\Users\Julien\AppData\Local\Temp\cco0ki48.s 			page 8


 287              		.file 9 "Generated_Source\\PSoC5/core_cm3.h"