ARM GAS  C:\Users\Julien\AppData\Local\Temp\ccHOrzlH.s 			page 1


   1              		.syntax unified
   2              		.cpu cortex-m3
   3              		.fpu softvfp
   4              		.eabi_attribute 20, 1
   5              		.eabi_attribute 21, 1
   6              		.eabi_attribute 23, 3
   7              		.eabi_attribute 24, 1
   8              		.eabi_attribute 25, 1
   9              		.eabi_attribute 26, 1
  10              		.eabi_attribute 30, 1
  11              		.eabi_attribute 34, 1
  12              		.eabi_attribute 18, 4
  13              		.thumb
  14              		.file	"ultrason.c"
  15              		.text
  16              	.Ltext0:
  17              		.cfi_sections	.debug_frame
  18              		.global	__aeabi_i2d
  19              		.global	__aeabi_dmul
  20              		.global	__aeabi_d2uiz
  21              		.section	.text.timerInterrupt,"ax",%progbits
  22              		.align	2
  23              		.global	timerInterrupt
  24              		.thumb
  25              		.thumb_func
  26              		.type	timerInterrupt, %function
  27              	timerInterrupt:
  28              	.LFB64:
  29              		.file 1 "ultrason.c"
   1:ultrason.c    **** /* ========================================
   2:ultrason.c    ****  *
   3:ultrason.c    ****  * Copyright YOUR COMPANY, THE YEAR
   4:ultrason.c    ****  * All Rights Reserved
   5:ultrason.c    ****  * UNPUBLISHED, LICENSED SOFTWARE.
   6:ultrason.c    ****  *
   7:ultrason.c    ****  * CONFIDENTIAL AND PROPRIETARY INFORMATION
   8:ultrason.c    ****  * WHICH IS THE PROPERTY OF your company.
   9:ultrason.c    ****  *
  10:ultrason.c    ****  * ========================================
  11:ultrason.c    **** */
  12:ultrason.c    **** #include "project.h"
  13:ultrason.c    **** #include "ultrason.h"
  14:ultrason.c    **** 
  15:ultrason.c    **** uint32 timerCount;
  16:ultrason.c    **** uint8 recu;
  17:ultrason.c    **** uint16 distance;
  18:ultrason.c    **** 
  19:ultrason.c    **** void init_ultrason()
  20:ultrason.c    **** {
  21:ultrason.c    ****     TimerISR_StartEx(timerInterrupt);
  22:ultrason.c    ****     periodeISR_StartEx(periodeInterrupt);
  23:ultrason.c    ****     CounterISR_StartEx(counterInterrupt);
  24:ultrason.c    **** 
  25:ultrason.c    ****     Ampli_Recept_Start();
  26:ultrason.c    ****     Detect_Seuil_Recept_Start();
  27:ultrason.c    ****     V_seuil_Start();
  28:ultrason.c    ****     Timer_US_Start();
ARM GAS  C:\Users\Julien\AppData\Local\Temp\ccHOrzlH.s 			page 2


  29:ultrason.c    ****     CharLCD_1_Start();
  30:ultrason.c    ****     US_40kHz_Start();
  31:ultrason.c    ****     Counter_1_Start();
  32:ultrason.c    ****     Timer_periode_Start();
  33:ultrason.c    ****     
  34:ultrason.c    ****     recu=0;
  35:ultrason.c    ****     CharLCD_1_Position(0u, 0u);
  36:ultrason.c    ****     CharLCD_1_PrintString("DISTANCE :");
  37:ultrason.c    **** }
  38:ultrason.c    **** 
  39:ultrason.c    **** /*
  40:ultrason.c    ****  * Interruption déclenchée lorsque signal reçu par récepteur ultrasons
  41:ultrason.c    **** */ 
  42:ultrason.c    **** CY_ISR(timerInterrupt)
  43:ultrason.c    **** {
  30              		.loc 1 43 0
  31              		.cfi_startproc
  32              		@ args = 0, pretend = 0, frame = 0
  33              		@ frame_needed = 0, uses_anonymous_args = 0
  34 0000 70B5     		push	{r4, r5, r6, lr}
  35              		.cfi_def_cfa_offset 16
  36              		.cfi_offset 4, -16
  37              		.cfi_offset 5, -12
  38              		.cfi_offset 6, -8
  39              		.cfi_offset 14, -4
  44:ultrason.c    ****     // Signal reçu, lecture du compteur de Timer_US : temps entre émission et réception
  45:ultrason.c    ****    	timerCount = Timer_US_ReadCapture();
  40              		.loc 1 45 0
  41 0002 FFF7FEFF 		bl	Timer_US_ReadCapture
  42              	.LVL0:
  43 0006 184E     		ldr	r6, .L3+8
  44 0008 3060     		str	r0, [r6]
  46:ultrason.c    ****     Detect_Seuil_Recept_Stop(); // Arret du comparateur pour éviter rebonds
  45              		.loc 1 46 0
  46 000a FFF7FEFF 		bl	Detect_Seuil_Recept_Stop
  47              	.LVL1:
  47:ultrason.c    ****     recu = 1;
  48              		.loc 1 47 0
  49 000e 174C     		ldr	r4, .L3+12
  50 0010 0125     		movs	r5, #1
  51 0012 2570     		strb	r5, [r4]
  48:ultrason.c    ****     Timer_US_ReadStatusRegister();
  52              		.loc 1 48 0
  53 0014 FFF7FEFF 		bl	Timer_US_ReadStatusRegister
  54              	.LVL2:
  49:ultrason.c    ****     //Timer_US_STATUS_CAPTURE; // Remise à 0 status register
  50:ultrason.c    ****     distance = (uint16) ((16777216-timerCount)/48)*0.34; // en mm
  55              		.loc 1 50 0
  56 0018 3068     		ldr	r0, [r6]
  57 001a C0F18070 		rsb	r0, r0, #16777216
  58 001e 144B     		ldr	r3, .L3+16
  59 0020 A3FB0030 		umull	r3, r0, r3, r0
  60 0024 C0F34F10 		ubfx	r0, r0, #5, #16
  61 0028 FFF7FEFF 		bl	__aeabi_i2d
  62              	.LVL3:
  63 002c 0CA3     		adr	r3, .L3
  64 002e D3E90023 		ldrd	r2, [r3]
ARM GAS  C:\Users\Julien\AppData\Local\Temp\ccHOrzlH.s 			page 3


  65 0032 FFF7FEFF 		bl	__aeabi_dmul
  66              	.LVL4:
  67 0036 0F4E     		ldr	r6, .L3+20
  68 0038 FFF7FEFF 		bl	__aeabi_d2uiz
  69              	.LVL5:
  70 003c 3080     		strh	r0, [r6]	@ movhi
  51:ultrason.c    ****         
  52:ultrason.c    **** 	CharLCD_1_Position(0u, 11u);
  71              		.loc 1 52 0
  72 003e 0020     		movs	r0, #0
  73 0040 0B21     		movs	r1, #11
  74 0042 FFF7FEFF 		bl	CharLCD_1_Position
  75              	.LVL6:
  53:ultrason.c    ****     CharLCD_1_PrintString("     ");
  76              		.loc 1 53 0
  77 0046 0C48     		ldr	r0, .L3+24
  78 0048 FFF7FEFF 		bl	CharLCD_1_PrintString
  79              	.LVL7:
  54:ultrason.c    ****     CharLCD_1_Position(0u, 11u);
  80              		.loc 1 54 0
  81 004c 0020     		movs	r0, #0
  82 004e 0B21     		movs	r1, #11
  83 0050 FFF7FEFF 		bl	CharLCD_1_Position
  84              	.LVL8:
  55:ultrason.c    ****     CharLCD_1_PrintNumber(distance);
  85              		.loc 1 55 0
  86 0054 3088     		ldrh	r0, [r6]
  87 0056 FFF7FEFF 		bl	CharLCD_1_PrintU32Number
  88              	.LVL9:
  56:ultrason.c    ****     
  57:ultrason.c    ****     recu=1;
  89              		.loc 1 57 0
  90 005a 2570     		strb	r5, [r4]
  91 005c 70BD     		pop	{r4, r5, r6, pc}
  92              	.L4:
  93 005e 00BF     		.align	3
  94              	.L3:
  95 0060 C3F5285C 		.word	1546188227
  96 0064 8FC2D53F 		.word	1070973583
  97 0068 00000000 		.word	timerCount
  98 006c 00000000 		.word	recu
  99 0070 ABAAAAAA 		.word	-1431655765
 100 0074 00000000 		.word	distance
 101 0078 00000000 		.word	.LC0
 102              		.cfi_endproc
 103              	.LFE64:
 104              		.size	timerInterrupt, .-timerInterrupt
 105 007c AFF30080 		.section	.text.counterInterrupt,"ax",%progbits
 106              		.align	2
 107              		.global	counterInterrupt
 108              		.thumb
 109              		.thumb_func
 110              		.type	counterInterrupt, %function
 111              	counterInterrupt:
 112              	.LFB65:
  58:ultrason.c    **** }
  59:ultrason.c    **** 
ARM GAS  C:\Users\Julien\AppData\Local\Temp\ccHOrzlH.s 			page 4


  60:ultrason.c    **** /*
  61:ultrason.c    ****  * Interruption déclenchée à la fin d'une émission de l'émetteur US (10 périodes de PWM compt
  62:ultrason.c    ****  */
  63:ultrason.c    **** CY_ISR(counterInterrupt)
  64:ultrason.c    **** {
 113              		.loc 1 64 0
 114              		.cfi_startproc
 115              		@ args = 0, pretend = 0, frame = 0
 116              		@ frame_needed = 0, uses_anonymous_args = 0
 117 0000 08B5     		push	{r3, lr}
 118              		.cfi_def_cfa_offset 8
 119              		.cfi_offset 3, -8
 120              		.cfi_offset 14, -4
  65:ultrason.c    ****     if (recu==0)
 121              		.loc 1 65 0
 122 0002 084B     		ldr	r3, .L8
 123 0004 1B78     		ldrb	r3, [r3]	@ zero_extendqisi2
 124 0006 33B9     		cbnz	r3, .L6
  66:ultrason.c    ****     {
  67:ultrason.c    ****         CharLCD_1_Position(0u, 11u);
 125              		.loc 1 67 0
 126 0008 0020     		movs	r0, #0
 127 000a 0B21     		movs	r1, #11
 128 000c FFF7FEFF 		bl	CharLCD_1_Position
 129              	.LVL10:
  68:ultrason.c    ****         CharLCD_1_PrintString("INF  ");
 130              		.loc 1 68 0
 131 0010 0548     		ldr	r0, .L8+4
 132 0012 FFF7FEFF 		bl	CharLCD_1_PrintString
 133              	.LVL11:
 134              	.L6:
  69:ultrason.c    ****     }
  70:ultrason.c    ****     Control_Reg_1_Write(0); // Arrêt émission US, activation réception
 135              		.loc 1 70 0
 136 0016 0020     		movs	r0, #0
 137 0018 FFF7FEFF 		bl	Control_Reg_1_Write
 138              	.LVL12:
  71:ultrason.c    ****     recu = 0;
 139              		.loc 1 71 0
 140 001c 0022     		movs	r2, #0
 141 001e 014B     		ldr	r3, .L8
 142 0020 1A70     		strb	r2, [r3]
 143 0022 08BD     		pop	{r3, pc}
 144              	.L9:
 145              		.align	2
 146              	.L8:
 147 0024 00000000 		.word	recu
 148 0028 08000000 		.word	.LC1
 149              		.cfi_endproc
 150              	.LFE65:
 151              		.size	counterInterrupt, .-counterInterrupt
 152              		.section	.text.periodeInterrupt,"ax",%progbits
 153              		.align	2
 154              		.global	periodeInterrupt
 155              		.thumb
 156              		.thumb_func
 157              		.type	periodeInterrupt, %function
ARM GAS  C:\Users\Julien\AppData\Local\Temp\ccHOrzlH.s 			page 5


 158              	periodeInterrupt:
 159              	.LFB66:
  72:ultrason.c    **** }
  73:ultrason.c    **** 
  74:ultrason.c    **** /*
  75:ultrason.c    ****  * Interruption toutes les 2.7ms : reactivation de l'émission US
  76:ultrason.c    ****  */
  77:ultrason.c    **** CY_ISR(periodeInterrupt)
  78:ultrason.c    **** {
 160              		.loc 1 78 0
 161              		.cfi_startproc
 162              		@ args = 0, pretend = 0, frame = 0
 163              		@ frame_needed = 0, uses_anonymous_args = 0
 164 0000 08B5     		push	{r3, lr}
 165              		.cfi_def_cfa_offset 8
 166              		.cfi_offset 3, -8
 167              		.cfi_offset 14, -4
  79:ultrason.c    ****     // Début d'une nouvelle période : génération impulsion ultra-sons
  80:ultrason.c    ****     //recu = 0;
  81:ultrason.c    ****     Detect_Seuil_Recept_Start();
 168              		.loc 1 81 0
 169 0002 FFF7FEFF 		bl	Detect_Seuil_Recept_Start
 170              	.LVL13:
  82:ultrason.c    ****     Control_Reg_1_Write(1);// Génération signal pour émetteur ultrasons
 171              		.loc 1 82 0
 172 0006 0120     		movs	r0, #1
 173 0008 FFF7FEFF 		bl	Control_Reg_1_Write
 174              	.LVL14:
  83:ultrason.c    ****     Timer_periode_ReadStatusRegister();
 175              		.loc 1 83 0
 176 000c FFF7FEFF 		bl	Timer_periode_ReadStatusRegister
 177              	.LVL15:
 178 0010 08BD     		pop	{r3, pc}
 179              		.cfi_endproc
 180              	.LFE66:
 181              		.size	periodeInterrupt, .-periodeInterrupt
 182 0012 00BF     		.section	.text.init_ultrason,"ax",%progbits
 183              		.align	2
 184              		.global	init_ultrason
 185              		.thumb
 186              		.thumb_func
 187              		.type	init_ultrason, %function
 188              	init_ultrason:
 189              	.LFB63:
  20:ultrason.c    ****     TimerISR_StartEx(timerInterrupt);
 190              		.loc 1 20 0
 191              		.cfi_startproc
 192              		@ args = 0, pretend = 0, frame = 0
 193              		@ frame_needed = 0, uses_anonymous_args = 0
 194 0000 08B5     		push	{r3, lr}
 195              		.cfi_def_cfa_offset 8
 196              		.cfi_offset 3, -8
 197              		.cfi_offset 14, -4
  21:ultrason.c    ****     periodeISR_StartEx(periodeInterrupt);
 198              		.loc 1 21 0
 199 0002 1148     		ldr	r0, .L14
 200 0004 FFF7FEFF 		bl	TimerISR_StartEx
ARM GAS  C:\Users\Julien\AppData\Local\Temp\ccHOrzlH.s 			page 6


 201              	.LVL16:
  22:ultrason.c    ****     CounterISR_StartEx(counterInterrupt);
 202              		.loc 1 22 0
 203 0008 1048     		ldr	r0, .L14+4
 204 000a FFF7FEFF 		bl	periodeISR_StartEx
 205              	.LVL17:
  23:ultrason.c    **** 
 206              		.loc 1 23 0
 207 000e 1048     		ldr	r0, .L14+8
 208 0010 FFF7FEFF 		bl	CounterISR_StartEx
 209              	.LVL18:
  25:ultrason.c    ****     Detect_Seuil_Recept_Start();
 210              		.loc 1 25 0
 211 0014 FFF7FEFF 		bl	Ampli_Recept_Start
 212              	.LVL19:
  26:ultrason.c    ****     V_seuil_Start();
 213              		.loc 1 26 0
 214 0018 FFF7FEFF 		bl	Detect_Seuil_Recept_Start
 215              	.LVL20:
  27:ultrason.c    ****     Timer_US_Start();
 216              		.loc 1 27 0
 217 001c FFF7FEFF 		bl	V_seuil_Start
 218              	.LVL21:
  28:ultrason.c    ****     CharLCD_1_Start();
 219              		.loc 1 28 0
 220 0020 FFF7FEFF 		bl	Timer_US_Start
 221              	.LVL22:
  29:ultrason.c    ****     US_40kHz_Start();
 222              		.loc 1 29 0
 223 0024 FFF7FEFF 		bl	CharLCD_1_Start
 224              	.LVL23:
  30:ultrason.c    ****     Counter_1_Start();
 225              		.loc 1 30 0
 226 0028 FFF7FEFF 		bl	US_40kHz_Start
 227              	.LVL24:
  31:ultrason.c    ****     Timer_periode_Start();
 228              		.loc 1 31 0
 229 002c FFF7FEFF 		bl	Counter_1_Start
 230              	.LVL25:
  32:ultrason.c    ****     
 231              		.loc 1 32 0
 232 0030 FFF7FEFF 		bl	Timer_periode_Start
 233              	.LVL26:
  34:ultrason.c    ****     CharLCD_1_Position(0u, 0u);
 234              		.loc 1 34 0
 235 0034 0021     		movs	r1, #0
 236 0036 074B     		ldr	r3, .L14+12
 237 0038 1970     		strb	r1, [r3]
  35:ultrason.c    ****     CharLCD_1_PrintString("DISTANCE :");
 238              		.loc 1 35 0
 239 003a 0846     		mov	r0, r1
 240 003c FFF7FEFF 		bl	CharLCD_1_Position
 241              	.LVL27:
  36:ultrason.c    **** }
 242              		.loc 1 36 0
 243 0040 0548     		ldr	r0, .L14+16
 244 0042 FFF7FEFF 		bl	CharLCD_1_PrintString
ARM GAS  C:\Users\Julien\AppData\Local\Temp\ccHOrzlH.s 			page 7


 245              	.LVL28:
 246 0046 08BD     		pop	{r3, pc}
 247              	.L15:
 248              		.align	2
 249              	.L14:
 250 0048 00000000 		.word	timerInterrupt
 251 004c 00000000 		.word	periodeInterrupt
 252 0050 00000000 		.word	counterInterrupt
 253 0054 00000000 		.word	recu
 254 0058 10000000 		.word	.LC2
 255              		.cfi_endproc
 256              	.LFE63:
 257              		.size	init_ultrason, .-init_ultrason
 258              		.comm	distance,2,2
 259              		.comm	recu,1,1
 260              		.comm	timerCount,4,4
 261              		.section	.rodata.str1.4,"aMS",%progbits,1
 262              		.align	2
 263              	.LC0:
 264 0000 20202020 		.ascii	"     \000"
 264      2000
 265 0006 0000     		.space	2
 266              	.LC1:
 267 0008 494E4620 		.ascii	"INF  \000"
 267      2000
 268 000e 0000     		.space	2
 269              	.LC2:
 270 0010 44495354 		.ascii	"DISTANCE :\000"
 270      414E4345 
 270      203A00
 271 001b 00       		.text
 272              	.Letext0:
 273              		.file 2 "c:\\program files (x86)\\cypress\\psoc creator\\4.0\\psoc creator\\import\\gnu\\arm\\4.9.
 274              		.file 3 "c:\\program files (x86)\\cypress\\psoc creator\\4.0\\psoc creator\\import\\gnu\\arm\\4.9.
 275              		.file 4 "Generated_Source\\PSoC5/cytypes.h"
 276              		.file 5 "Generated_Source\\PSoC5/core_cm3.h"
 277              		.file 6 "Generated_Source\\PSoC5/Timer_US.h"
 278              		.file 7 "Generated_Source\\PSoC5/CharLCD_1.h"
 279              		.file 8 "Generated_Source\\PSoC5/Control_Reg_1.h"
 280              		.file 9 "Generated_Source\\PSoC5/Detect_Seuil_Recept.h"
 281              		.file 10 "Generated_Source\\PSoC5/Timer_periode.h"
 282              		.file 11 "Generated_Source\\PSoC5/TimerISR.h"
 283              		.file 12 "Generated_Source\\PSoC5/periodeISR.h"
 284              		.file 13 "Generated_Source\\PSoC5/CounterISR.h"
 285              		.file 14 "Generated_Source\\PSoC5/Ampli_Recept.h"
 286              		.file 15 "Generated_Source\\PSoC5/V_seuil.h"
 287              		.file 16 "Generated_Source\\PSoC5/US_40kHz.h"
 288              		.file 17 "Generated_Source\\PSoC5/Counter_1.h"